   1              	 .cpu cortex-m0
   2              	 .fpu softvfp
   3              	 .eabi_attribute 20,1
   4              	 .eabi_attribute 21,1
   5              	 .eabi_attribute 23,3
   6              	 .eabi_attribute 24,1
   7              	 .eabi_attribute 25,1
   8              	 .eabi_attribute 26,1
   9              	 .eabi_attribute 30,6
  10              	 .eabi_attribute 34,0
  11              	 .eabi_attribute 18,4
  12              	 .code 16
  13              	 .file "watchdog.c"
  14              	 .text
  15              	.Ltext0:
  16              	 .cfi_sections .debug_frame
  17              	 .section .text.WATCHDOG_GetAppVersion,"ax",%progbits
  18              	 .align 2
  19              	 .global WATCHDOG_GetAppVersion
  20              	 .code 16
  21              	 .thumb_func
  23              	WATCHDOG_GetAppVersion:
  24              	.LFB79:
  25              	 .file 1 "../Dave/Generated/WATCHDOG/watchdog.c"
   1:../Dave/Generated/WATCHDOG/watchdog.c **** /**
   2:../Dave/Generated/WATCHDOG/watchdog.c ****  * @file watchdog.c
   3:../Dave/Generated/WATCHDOG/watchdog.c ****  * @date 2016-02-09
   4:../Dave/Generated/WATCHDOG/watchdog.c ****  *
   5:../Dave/Generated/WATCHDOG/watchdog.c ****  * NOTE:
   6:../Dave/Generated/WATCHDOG/watchdog.c ****  * This file is generated by DAVE. Any manual modification done to this file will be lost when the 
   7:../Dave/Generated/WATCHDOG/watchdog.c ****  *
   8:../Dave/Generated/WATCHDOG/watchdog.c ****  * @cond
   9:../Dave/Generated/WATCHDOG/watchdog.c ****  **************************************************************************************************
  10:../Dave/Generated/WATCHDOG/watchdog.c ****  * WATCHDOG v4.0.14 - Configures the watchdog peripheral instance.
  11:../Dave/Generated/WATCHDOG/watchdog.c ****  *
  12:../Dave/Generated/WATCHDOG/watchdog.c ****  * Copyright (c) 2016, Infineon Technologies AG
  13:../Dave/Generated/WATCHDOG/watchdog.c ****  * All rights reserved.
  14:../Dave/Generated/WATCHDOG/watchdog.c ****  *
  15:../Dave/Generated/WATCHDOG/watchdog.c ****  * Redistribution and use in source and binary forms, with or without modification,are permitted pr
  16:../Dave/Generated/WATCHDOG/watchdog.c ****  * following conditions are met:
  17:../Dave/Generated/WATCHDOG/watchdog.c ****  *
  18:../Dave/Generated/WATCHDOG/watchdog.c ****  *   Redistributions of source code must retain the above copyright notice, this list of conditions
  19:../Dave/Generated/WATCHDOG/watchdog.c ****  *   disclaimer.
  20:../Dave/Generated/WATCHDOG/watchdog.c ****  *
  21:../Dave/Generated/WATCHDOG/watchdog.c ****  *   Redistributions in binary form must reproduce the above copyright notice, this list of conditi
  22:../Dave/Generated/WATCHDOG/watchdog.c ****  *   following disclaimer in the documentation and/or other materials provided with the distributio
  23:../Dave/Generated/WATCHDOG/watchdog.c ****  *
  24:../Dave/Generated/WATCHDOG/watchdog.c ****  *   Neither the name of the copyright holders nor the names of its contributors may be used to end
  25:../Dave/Generated/WATCHDOG/watchdog.c ****  *   products derived from this software without specific prior written permission.
  26:../Dave/Generated/WATCHDOG/watchdog.c ****  *
  27:../Dave/Generated/WATCHDOG/watchdog.c ****  * THIS SOFTWARE IS PROVIDED BY THE COPYRIGHT HOLDERS AND CONTRIBUTORS "AS IS" AND ANY EXPRESS OR I
  28:../Dave/Generated/WATCHDOG/watchdog.c ****  * INCLUDING, BUT NOT LIMITED TO, THE IMPLIED WARRANTIES OF MERCHANTABILITY AND FITNESS FOR A PARTI
  29:../Dave/Generated/WATCHDOG/watchdog.c ****  * DISCLAIMED. IN NO EVENT SHALL THE COPYRIGHT HOLDER OR CONTRIBUTORS BE LIABLE  FOR ANY DIRECT, IN
  30:../Dave/Generated/WATCHDOG/watchdog.c ****  * SPECIAL, EXEMPLARY, OR CONSEQUENTIAL DAMAGES (INCLUDING, BUT NOT LIMITED TO, PROCUREMENT OF SUBS
  31:../Dave/Generated/WATCHDOG/watchdog.c ****  * SERVICES; LOSS OF USE, DATA, OR PROFITS; OR BUSINESS INTERRUPTION) HOWEVER CAUSED AND ON ANY THE
  32:../Dave/Generated/WATCHDOG/watchdog.c ****  * WHETHER IN CONTRACT, STRICT LIABILITY,OR TORT (INCLUDING NEGLIGENCE OR OTHERWISE) ARISING IN ANY
  33:../Dave/Generated/WATCHDOG/watchdog.c ****  * USE OF THIS SOFTWARE, EVEN IF ADVISED OF THE POSSIBILITY OF SUCH DAMAGE.
  34:../Dave/Generated/WATCHDOG/watchdog.c ****  *
  35:../Dave/Generated/WATCHDOG/watchdog.c ****  * To improve the quality of the software, users are encouraged to share modifications, enhancement
  36:../Dave/Generated/WATCHDOG/watchdog.c ****  * with Infineon Technologies AG (dave@infineon.com).
  37:../Dave/Generated/WATCHDOG/watchdog.c ****  **************************************************************************************************
  38:../Dave/Generated/WATCHDOG/watchdog.c ****  *
  39:../Dave/Generated/WATCHDOG/watchdog.c ****  * Change History
  40:../Dave/Generated/WATCHDOG/watchdog.c ****  * --------------
  41:../Dave/Generated/WATCHDOG/watchdog.c ****  *
  42:../Dave/Generated/WATCHDOG/watchdog.c ****  * 2015-02-16:
  43:../Dave/Generated/WATCHDOG/watchdog.c ****  *     - Initial version<br>
  44:../Dave/Generated/WATCHDOG/watchdog.c ****  *
  45:../Dave/Generated/WATCHDOG/watchdog.c ****  * 2015-05-08:
  46:../Dave/Generated/WATCHDOG/watchdog.c ****  *     - Optimization of WATCHDOG_Init() function<br>
  47:../Dave/Generated/WATCHDOG/watchdog.c ****  *     - Added a macro "WATCHDOG_NORMAL_INTERRUPT" to avoid misra warning<br>
  48:../Dave/Generated/WATCHDOG/watchdog.c ****  *
  49:../Dave/Generated/WATCHDOG/watchdog.c ****  * 2015-06-20:
  50:../Dave/Generated/WATCHDOG/watchdog.c ****  *     - Pre-warn event registration is updated by using GLOBAL_SCU APP macros.
  51:../Dave/Generated/WATCHDOG/watchdog.c ****  *
  52:../Dave/Generated/WATCHDOG/watchdog.c ****  * 2015-11-30:
  53:../Dave/Generated/WATCHDOG/watchdog.c ****  *     - macro WATCHDOG_EVENT_CONFIGURATION is replaced with WATCHDOG_EVENT_VIA_SCU.
  54:../Dave/Generated/WATCHDOG/watchdog.c ****  *     - NMI support for XMC4000 devices is added.
  55:../Dave/Generated/WATCHDOG/watchdog.c ****  *
  56:../Dave/Generated/WATCHDOG/watchdog.c ****  * @endcond
  57:../Dave/Generated/WATCHDOG/watchdog.c ****  *
  58:../Dave/Generated/WATCHDOG/watchdog.c ****  */
  59:../Dave/Generated/WATCHDOG/watchdog.c **** 
  60:../Dave/Generated/WATCHDOG/watchdog.c **** /**************************************************************************************************
  61:../Dave/Generated/WATCHDOG/watchdog.c ****  * HEADER FILES
  62:../Dave/Generated/WATCHDOG/watchdog.c ****  **************************************************************************************************
  63:../Dave/Generated/WATCHDOG/watchdog.c **** #include "watchdog.h"
  64:../Dave/Generated/WATCHDOG/watchdog.c **** 
  65:../Dave/Generated/WATCHDOG/watchdog.c **** /**************************************************************************************************
  66:../Dave/Generated/WATCHDOG/watchdog.c ****  * MACROS
  67:../Dave/Generated/WATCHDOG/watchdog.c ****  **************************************************************************************************
  68:../Dave/Generated/WATCHDOG/watchdog.c **** 
  69:../Dave/Generated/WATCHDOG/watchdog.c **** /**************************************************************************************************
  70:../Dave/Generated/WATCHDOG/watchdog.c ****  * LOCAL DATA
  71:../Dave/Generated/WATCHDOG/watchdog.c ****  **************************************************************************************************
  72:../Dave/Generated/WATCHDOG/watchdog.c **** 
  73:../Dave/Generated/WATCHDOG/watchdog.c **** /**************************************************************************************************
  74:../Dave/Generated/WATCHDOG/watchdog.c ****  * LOCAL ROUTINES
  75:../Dave/Generated/WATCHDOG/watchdog.c ****  **************************************************************************************************
  76:../Dave/Generated/WATCHDOG/watchdog.c **** #if (WATCHDOG_PREWARNING_CHECK == 1U)
  77:../Dave/Generated/WATCHDOG/watchdog.c **** /*
  78:../Dave/Generated/WATCHDOG/watchdog.c ****  * Register the Pre-warning event with GLOBAL_SCU APP
  79:../Dave/Generated/WATCHDOG/watchdog.c ****  */
  80:../Dave/Generated/WATCHDOG/watchdog.c **** WATCHDOG_STATUS_t WATCHDOG_lPrewarning_Configure(WATCHDOG_t *handle);
  81:../Dave/Generated/WATCHDOG/watchdog.c **** #endif
  82:../Dave/Generated/WATCHDOG/watchdog.c **** 
  83:../Dave/Generated/WATCHDOG/watchdog.c **** /**************************************************************************************************
  84:../Dave/Generated/WATCHDOG/watchdog.c ****  * API IMPLEMENTATION
  85:../Dave/Generated/WATCHDOG/watchdog.c ****  **************************************************************************************************
  86:../Dave/Generated/WATCHDOG/watchdog.c **** /* Returns the version of the WATCHDOG APP. */
  87:../Dave/Generated/WATCHDOG/watchdog.c **** DAVE_APP_VERSION_t WATCHDOG_GetAppVersion(void)
  88:../Dave/Generated/WATCHDOG/watchdog.c **** {
  26              	 .loc 1 88 0
  27              	 .cfi_startproc
  28 0000 80B5     	 push {r7,lr}
  29              	.LCFI0:
  30              	 .cfi_def_cfa_offset 8
  31              	 .cfi_offset 7,-8
  32              	 .cfi_offset 14,-4
  33 0002 82B0     	 sub sp,sp,#8
  34              	.LCFI1:
  35              	 .cfi_def_cfa_offset 16
  36 0004 00AF     	 add r7,sp,#0
  37              	.LCFI2:
  38              	 .cfi_def_cfa_register 7
  89:../Dave/Generated/WATCHDOG/watchdog.c ****   DAVE_APP_VERSION_t version;
  90:../Dave/Generated/WATCHDOG/watchdog.c **** 
  91:../Dave/Generated/WATCHDOG/watchdog.c ****   version.major = (uint8_t)WATCHDOG_MAJOR_VERSION;
  39              	 .loc 1 91 0
  40 0006 3B1C     	 mov r3,r7
  41 0008 0422     	 mov r2,#4
  42 000a 1A70     	 strb r2,[r3]
  92:../Dave/Generated/WATCHDOG/watchdog.c ****   version.minor = (uint8_t)WATCHDOG_MINOR_VERSION;
  43              	 .loc 1 92 0
  44 000c 3B1C     	 mov r3,r7
  45 000e 0022     	 mov r2,#0
  46 0010 5A70     	 strb r2,[r3,#1]
  93:../Dave/Generated/WATCHDOG/watchdog.c ****   version.patch = (uint8_t)WATCHDOG_PATCH_VERSION;
  47              	 .loc 1 93 0
  48 0012 3B1C     	 mov r3,r7
  49 0014 0E22     	 mov r2,#14
  50 0016 9A70     	 strb r2,[r3,#2]
  94:../Dave/Generated/WATCHDOG/watchdog.c **** 
  95:../Dave/Generated/WATCHDOG/watchdog.c ****   return (version);
  51              	 .loc 1 95 0
  52 0018 3B1D     	 add r3,r7,#4
  53 001a 3A1C     	 mov r2,r7
  54 001c 1188     	 ldrh r1,[r2]
  55 001e 1980     	 strh r1,[r3]
  56 0020 9278     	 ldrb r2,[r2,#2]
  57 0022 9A70     	 strb r2,[r3,#2]
  58 0024 3A1D     	 add r2,r7,#4
  59 0026 0023     	 mov r3,#0
  60 0028 1178     	 ldrb r1,[r2]
  61 002a FF20     	 mov r0,#255
  62 002c 0140     	 and r1,r0
  63 002e FF20     	 mov r0,#255
  64 0030 8343     	 bic r3,r0
  65 0032 0B43     	 orr r3,r1
  66 0034 5178     	 ldrb r1,[r2,#1]
  67 0036 FF20     	 mov r0,#255
  68 0038 0140     	 and r1,r0
  69 003a 0902     	 lsl r1,r1,#8
  70 003c 0648     	 ldr r0,.L3
  71 003e 0340     	 and r3,r0
  72 0040 0B43     	 orr r3,r1
  73 0042 9278     	 ldrb r2,[r2,#2]
  74 0044 FF21     	 mov r1,#255
  75 0046 0A40     	 and r2,r1
  76 0048 1204     	 lsl r2,r2,#16
  77 004a 0449     	 ldr r1,.L3+4
  78 004c 0B40     	 and r3,r1
  79 004e 1343     	 orr r3,r2
  96:../Dave/Generated/WATCHDOG/watchdog.c **** }
  80              	 .loc 1 96 0
  81 0050 181C     	 mov r0,r3
  82 0052 BD46     	 mov sp,r7
  83 0054 02B0     	 add sp,sp,#8
  84              	 
  85 0056 80BD     	 pop {r7,pc}
  86              	.L4:
  87              	 .align 2
  88              	.L3:
  89 0058 FF00FFFF 	 .word -65281
  90 005c FFFF00FF 	 .word -16711681
  91              	 .cfi_endproc
  92              	.LFE79:
  94              	 .section .text.WATCHDOG_Init,"ax",%progbits
  95              	 .align 2
  96              	 .global WATCHDOG_Init
  97              	 .code 16
  98              	 .thumb_func
 100              	WATCHDOG_Init:
 101              	.LFB80:
  97:../Dave/Generated/WATCHDOG/watchdog.c **** 
  98:../Dave/Generated/WATCHDOG/watchdog.c **** /* Initializes the watchdog timer with the generated configuration */
  99:../Dave/Generated/WATCHDOG/watchdog.c **** WATCHDOG_STATUS_t WATCHDOG_Init(WATCHDOG_t *handle)
 100:../Dave/Generated/WATCHDOG/watchdog.c **** {
 102              	 .loc 1 100 0
 103              	 .cfi_startproc
 104 0000 90B5     	 push {r4,r7,lr}
 105              	.LCFI3:
 106              	 .cfi_def_cfa_offset 12
 107              	 .cfi_offset 4,-12
 108              	 .cfi_offset 7,-8
 109              	 .cfi_offset 14,-4
 110 0002 85B0     	 sub sp,sp,#20
 111              	.LCFI4:
 112              	 .cfi_def_cfa_offset 32
 113 0004 00AF     	 add r7,sp,#0
 114              	.LCFI5:
 115              	 .cfi_def_cfa_register 7
 116 0006 7860     	 str r0,[r7,#4]
 101:../Dave/Generated/WATCHDOG/watchdog.c ****   WATCHDOG_STATUS_t status;
 102:../Dave/Generated/WATCHDOG/watchdog.c **** 
 103:../Dave/Generated/WATCHDOG/watchdog.c ****   XMC_ASSERT("WATCHDOG_Init:handle NULL" , (handle != NULL));
 104:../Dave/Generated/WATCHDOG/watchdog.c **** 
 105:../Dave/Generated/WATCHDOG/watchdog.c ****   status = WATCHDOG_STATUS_SUCCESS;
 117              	 .loc 1 105 0
 118 0008 0F23     	 mov r3,#15
 119 000a FB18     	 add r3,r7,r3
 120 000c 0022     	 mov r2,#0
 121 000e 1A70     	 strb r2,[r3]
 106:../Dave/Generated/WATCHDOG/watchdog.c **** 
 107:../Dave/Generated/WATCHDOG/watchdog.c ****   /* Check for app instance is initialized or not */
 108:../Dave/Generated/WATCHDOG/watchdog.c ****   if (false == handle->initialized)
 122              	 .loc 1 108 0
 123 0010 7B68     	 ldr r3,[r7,#4]
 124 0012 1B7B     	 ldrb r3,[r3,#12]
 125 0014 0122     	 mov r2,#1
 126 0016 5340     	 eor r3,r2
 127 0018 DBB2     	 uxtb r3,r3
 128 001a 002B     	 cmp r3,#0
 129 001c 14D0     	 beq .L6
 109:../Dave/Generated/WATCHDOG/watchdog.c ****   {
 110:../Dave/Generated/WATCHDOG/watchdog.c **** #if (WATCHDOG_PREWARNING_CHECK == 1U)
 111:../Dave/Generated/WATCHDOG/watchdog.c ****       /* Service Event Handling */
 112:../Dave/Generated/WATCHDOG/watchdog.c ****       status = WATCHDOG_lPrewarning_Configure(handle);
 130              	 .loc 1 112 0
 131 001e 0F23     	 mov r3,#15
 132 0020 FC18     	 add r4,r7,r3
 133 0022 7B68     	 ldr r3,[r7,#4]
 134 0024 181C     	 mov r0,r3
 135 0026 FFF7FEFF 	 bl WATCHDOG_lPrewarning_Configure
 136 002a 031C     	 mov r3,r0
 137 002c 2370     	 strb r3,[r4]
 113:../Dave/Generated/WATCHDOG/watchdog.c ****       if(WATCHDOG_STATUS_FAILURE != status)
 138              	 .loc 1 113 0
 139 002e 0F23     	 mov r3,#15
 140 0030 FB18     	 add r3,r7,r3
 141 0032 1B78     	 ldrb r3,[r3]
 142 0034 012B     	 cmp r3,#1
 143 0036 07D0     	 beq .L6
 114:../Dave/Generated/WATCHDOG/watchdog.c ****       {
 115:../Dave/Generated/WATCHDOG/watchdog.c **** #endif
 116:../Dave/Generated/WATCHDOG/watchdog.c ****         /* Initialize the WDT peripheral */
 117:../Dave/Generated/WATCHDOG/watchdog.c ****         XMC_WDT_Init(handle->config);
 144              	 .loc 1 117 0
 145 0038 7B68     	 ldr r3,[r7,#4]
 146 003a 1B68     	 ldr r3,[r3]
 147 003c 181C     	 mov r0,r3
 148 003e FFF7FEFF 	 bl XMC_WDT_Init
 118:../Dave/Generated/WATCHDOG/watchdog.c ****         /* Update the initialization flag */
 119:../Dave/Generated/WATCHDOG/watchdog.c ****         handle->initialized = true;
 149              	 .loc 1 119 0
 150 0042 7B68     	 ldr r3,[r7,#4]
 151 0044 0122     	 mov r2,#1
 152 0046 1A73     	 strb r2,[r3,#12]
 153              	.L6:
 120:../Dave/Generated/WATCHDOG/watchdog.c **** #if (WATCHDOG_PREWARNING_CHECK == 1U)
 121:../Dave/Generated/WATCHDOG/watchdog.c ****       }
 122:../Dave/Generated/WATCHDOG/watchdog.c **** #endif
 123:../Dave/Generated/WATCHDOG/watchdog.c ****   }
 124:../Dave/Generated/WATCHDOG/watchdog.c **** 
 125:../Dave/Generated/WATCHDOG/watchdog.c ****   return (status);
 154              	 .loc 1 125 0
 155 0048 0F23     	 mov r3,#15
 156 004a FB18     	 add r3,r7,r3
 157 004c 1B78     	 ldrb r3,[r3]
 126:../Dave/Generated/WATCHDOG/watchdog.c **** }
 158              	 .loc 1 126 0
 159 004e 181C     	 mov r0,r3
 160 0050 BD46     	 mov sp,r7
 161 0052 05B0     	 add sp,sp,#20
 162              	 
 163 0054 90BD     	 pop {r4,r7,pc}
 164              	 .cfi_endproc
 165              	.LFE80:
 167 0056 C046     	 .section .text.WATCHDOG_lPrewarning_Configure,"ax",%progbits
 168              	 .align 2
 169              	 .global WATCHDOG_lPrewarning_Configure
 170              	 .code 16
 171              	 .thumb_func
 173              	WATCHDOG_lPrewarning_Configure:
 174              	.LFB81:
 127:../Dave/Generated/WATCHDOG/watchdog.c **** 
 128:../Dave/Generated/WATCHDOG/watchdog.c **** /**************************************************************************************************
 129:../Dave/Generated/WATCHDOG/watchdog.c **** **                                        Private function definitions                             
 130:../Dave/Generated/WATCHDOG/watchdog.c **** ***************************************************************************************************
 131:../Dave/Generated/WATCHDOG/watchdog.c **** #if (WATCHDOG_PREWARNING_CHECK == 1U)
 132:../Dave/Generated/WATCHDOG/watchdog.c **** /*
 133:../Dave/Generated/WATCHDOG/watchdog.c ****  * Register the Pre-warning event with GLOBAL_SCU APP
 134:../Dave/Generated/WATCHDOG/watchdog.c ****  */
 135:../Dave/Generated/WATCHDOG/watchdog.c **** WATCHDOG_STATUS_t WATCHDOG_lPrewarning_Configure(WATCHDOG_t *handle)
 136:../Dave/Generated/WATCHDOG/watchdog.c **** {
 175              	 .loc 1 136 0
 176              	 .cfi_startproc
 177 0000 90B5     	 push {r4,r7,lr}
 178              	.LCFI6:
 179              	 .cfi_def_cfa_offset 12
 180              	 .cfi_offset 4,-12
 181              	 .cfi_offset 7,-8
 182              	 .cfi_offset 14,-4
 183 0002 85B0     	 sub sp,sp,#20
 184              	.LCFI7:
 185              	 .cfi_def_cfa_offset 32
 186 0004 00AF     	 add r7,sp,#0
 187              	.LCFI8:
 188              	 .cfi_def_cfa_register 7
 189 0006 7860     	 str r0,[r7,#4]
 137:../Dave/Generated/WATCHDOG/watchdog.c ****   WATCHDOG_STATUS_t status;
 138:../Dave/Generated/WATCHDOG/watchdog.c ****   status = WATCHDOG_STATUS_SUCCESS;
 190              	 .loc 1 138 0
 191 0008 0F23     	 mov r3,#15
 192 000a FB18     	 add r3,r7,r3
 193 000c 0022     	 mov r2,#0
 194 000e 1A70     	 strb r2,[r3]
 139:../Dave/Generated/WATCHDOG/watchdog.c ****   /* Normal interrupt generation */
 140:../Dave/Generated/WATCHDOG/watchdog.c **** #if (WATCHDOG_EVENT_VIA_SCU == 1U)
 141:../Dave/Generated/WATCHDOG/watchdog.c ****   #if(UC_FAMILY == XMC4)
 142:../Dave/Generated/WATCHDOG/watchdog.c ****     status = (WATCHDOG_STATUS_t)GLOBAL_SCU_XMC4_Init(handle->scu_global_handler);
 143:../Dave/Generated/WATCHDOG/watchdog.c ****   #else
 144:../Dave/Generated/WATCHDOG/watchdog.c ****     status = (WATCHDOG_STATUS_t)GLOBAL_SCU_XMC1_Init(handle->scu_global_handler);
 195              	 .loc 1 144 0
 196 0010 7B68     	 ldr r3,[r7,#4]
 197 0012 5B68     	 ldr r3,[r3,#4]
 198 0014 0F22     	 mov r2,#15
 199 0016 BC18     	 add r4,r7,r2
 200 0018 181C     	 mov r0,r3
 201 001a FFF7FEFF 	 bl GLOBAL_SCU_XMC1_Init
 202 001e 031C     	 mov r3,r0
 203 0020 2370     	 strb r3,[r4]
 145:../Dave/Generated/WATCHDOG/watchdog.c ****   #endif
 146:../Dave/Generated/WATCHDOG/watchdog.c ****     if ((handle->callback_func_ptr != NULL) &&  (status != WATCHDOG_STATUS_FAILURE))
 204              	 .loc 1 146 0
 205 0022 7B68     	 ldr r3,[r7,#4]
 206 0024 9B68     	 ldr r3,[r3,#8]
 207 0026 002B     	 cmp r3,#0
 208 0028 14D0     	 beq .L9
 209              	 .loc 1 146 0 is_stmt 0 discriminator 1
 210 002a 0F23     	 mov r3,#15
 211 002c FB18     	 add r3,r7,r3
 212 002e 1B78     	 ldrb r3,[r3]
 213 0030 012B     	 cmp r3,#1
 214 0032 0FD0     	 beq .L9
 147:../Dave/Generated/WATCHDOG/watchdog.c ****     {
 148:../Dave/Generated/WATCHDOG/watchdog.c ****       /* Enable the pre-warn event */
 149:../Dave/Generated/WATCHDOG/watchdog.c ****       XMC_SCU_INTERRUPT_EnableEvent((uint32_t)XMC_SCU_INTERRUPT_EVENT_WDT_WARN);
 215              	 .loc 1 149 0 is_stmt 1
 216 0034 0120     	 mov r0,#1
 217 0036 0021     	 mov r1,#0
 218 0038 FFF7FEFF 	 bl XMC_SCU_INTERRUPT_EnableEvent
 150:../Dave/Generated/WATCHDOG/watchdog.c ****       /* Register User defined Event Handler function */
 151:../Dave/Generated/WATCHDOG/watchdog.c **** 	  #if(UC_FAMILY == XMC4)
 152:../Dave/Generated/WATCHDOG/watchdog.c ****       status = (WATCHDOG_STATUS_t)GLOBAL_SCU_XMC4_RegisterCallback(GLOBAL_SCU_XMC4_EVENT_WDT_WARNIN
 153:../Dave/Generated/WATCHDOG/watchdog.c ****     		                                                       handle->callback_func_ptr);
 154:../Dave/Generated/WATCHDOG/watchdog.c **** 	  #else
 155:../Dave/Generated/WATCHDOG/watchdog.c ****       status = (WATCHDOG_STATUS_t)GLOBAL_SCU_XMC1_RegisterCallback(GLOBAL_SCU_XMC1_EVENT_WDT_WARNIN
 219              	 .loc 1 155 0
 220 003c 7B68     	 ldr r3,[r7,#4]
 221 003e 9B68     	 ldr r3,[r3,#8]
 222 0040 0F22     	 mov r2,#15
 223 0042 BC18     	 add r4,r7,r2
 224 0044 0120     	 mov r0,#1
 225 0046 0021     	 mov r1,#0
 226 0048 1A1C     	 mov r2,r3
 227 004a FFF7FEFF 	 bl GLOBAL_SCU_XMC1_RegisterCallback
 228 004e 031C     	 mov r3,r0
 229 0050 2370     	 strb r3,[r4]
 230 0052 03E0     	 b .L10
 231              	.L9:
 156:../Dave/Generated/WATCHDOG/watchdog.c ****     		                                                       handle->callback_func_ptr);
 157:../Dave/Generated/WATCHDOG/watchdog.c **** 	  #endif
 158:../Dave/Generated/WATCHDOG/watchdog.c ****     }
 159:../Dave/Generated/WATCHDOG/watchdog.c ****     else
 160:../Dave/Generated/WATCHDOG/watchdog.c ****     {
 161:../Dave/Generated/WATCHDOG/watchdog.c ****       status = WATCHDOG_STATUS_FAILURE;
 232              	 .loc 1 161 0
 233 0054 0F23     	 mov r3,#15
 234 0056 FB18     	 add r3,r7,r3
 235 0058 0122     	 mov r2,#1
 236 005a 1A70     	 strb r2,[r3]
 237              	.L10:
 162:../Dave/Generated/WATCHDOG/watchdog.c ****     }
 163:../Dave/Generated/WATCHDOG/watchdog.c **** #endif
 164:../Dave/Generated/WATCHDOG/watchdog.c **** 
 165:../Dave/Generated/WATCHDOG/watchdog.c **** #if (WATCHDOG_EVENT_VIA_NMI == 1U)
 166:../Dave/Generated/WATCHDOG/watchdog.c ****     XMC_SCU_INTERRUPT_EnableEvent((uint32_t)XMC_SCU_INTERRUPT_EVENT_WDT_WARN);
 167:../Dave/Generated/WATCHDOG/watchdog.c ****     XMC_SCU_INTERRUPT_EnableNmiRequest((uint32_t)XMC_SCU_INTERRUPT_EVENT_WDT_WARN);
 168:../Dave/Generated/WATCHDOG/watchdog.c **** #endif
 169:../Dave/Generated/WATCHDOG/watchdog.c **** 
 170:../Dave/Generated/WATCHDOG/watchdog.c ****   return (status);
 238              	 .loc 1 170 0
 239 005c 0F23     	 mov r3,#15
 240 005e FB18     	 add r3,r7,r3
 241 0060 1B78     	 ldrb r3,[r3]
 171:../Dave/Generated/WATCHDOG/watchdog.c **** }
 242              	 .loc 1 171 0
 243 0062 181C     	 mov r0,r3
 244 0064 BD46     	 mov sp,r7
 245 0066 05B0     	 add sp,sp,#20
 246              	 
 247 0068 90BD     	 pop {r4,r7,pc}
 248              	 .cfi_endproc
 249              	.LFE81:
 251 006a C046     	 .text
 252              	.Letext0:
 253              	 .file 2 "c:\\users\\victor.paschoal\\documents\\dave-ide-4.4.2-64bit\\eclipse\\arm-gcc-49\\arm-none-eabi\\include\\machine\\_default_types.h"
 254              	 .file 3 "c:\\users\\victor.paschoal\\documents\\dave-ide-4.4.2-64bit\\eclipse\\arm-gcc-49\\arm-none-eabi\\include\\stdint.h"
 255              	 .file 4 "C:/Workspaces/DAVE-4.4.2-64Bit/MK2_TESTE_ACIONAMENTO2/Libraries/XMCLib/inc/xmc_scu.h"
 256              	 .file 5 "C:/Workspaces/DAVE-4.4.2-64Bit/MK2_TESTE_ACIONAMENTO2/Libraries/XMCLib/inc/xmc_wdt.h"
 257              	 .file 6 "C:/Workspaces/DAVE-4.4.2-64Bit/MK2_TESTE_ACIONAMENTO2/Dave/Generated/DAVE_Common.h"
 258              	 .file 7 "C:/Workspaces/DAVE-4.4.2-64Bit/MK2_TESTE_ACIONAMENTO2/Dave/Generated/GLOBAL_SCU_XMC1/global_scu_xmc1.h"
 259              	 .file 8 "../Dave/Generated/WATCHDOG/watchdog.h"
 260              	 .file 9 "C:/Workspaces/DAVE-4.4.2-64Bit/MK2_TESTE_ACIONAMENTO2/Libraries/CMSIS/Infineon/XMC1400_series/Include/system_XMC1400.h"