   1              	 .cpu cortex-m0
   2              	 .fpu softvfp
   3              	 .eabi_attribute 20,1
   4              	 .eabi_attribute 21,1
   5              	 .eabi_attribute 23,3
   6              	 .eabi_attribute 24,1
   7              	 .eabi_attribute 25,1
   8              	 .eabi_attribute 26,1
   9              	 .eabi_attribute 30,6
  10              	 .eabi_attribute 34,0
  11              	 .eabi_attribute 18,4
  12              	 .code 16
  13              	 .file "e_eeprom_xmc1.c"
  14              	 .text
  15              	.Ltext0:
  16              	 .cfi_sections .debug_frame
  17              	 .section .text.XMC_FLASH_ReadWord,"ax",%progbits
  18              	 .align 2
  19              	 .code 16
  20              	 .thumb_func
  22              	XMC_FLASH_ReadWord:
  23              	.LFB41:
  24              	 .file 1 "C:/Workspaces/DAVE-4.4.2-64Bit/MK2_TESTE_ACIONAMENTO2/Libraries/XMCLib/inc/xmc1_flash.h"
   1:C:/Workspaces/DAVE-4.4.2-64Bit/MK2_TESTE_ACIONAMENTO2/Libraries/XMCLib/inc\xmc1_flash.h **** /**
   2:C:/Workspaces/DAVE-4.4.2-64Bit/MK2_TESTE_ACIONAMENTO2/Libraries/XMCLib/inc\xmc1_flash.h ****  * @file xmc1_flash.h
   3:C:/Workspaces/DAVE-4.4.2-64Bit/MK2_TESTE_ACIONAMENTO2/Libraries/XMCLib/inc\xmc1_flash.h ****  * @date 2015-06-20
   4:C:/Workspaces/DAVE-4.4.2-64Bit/MK2_TESTE_ACIONAMENTO2/Libraries/XMCLib/inc\xmc1_flash.h ****  *
   5:C:/Workspaces/DAVE-4.4.2-64Bit/MK2_TESTE_ACIONAMENTO2/Libraries/XMCLib/inc\xmc1_flash.h ****  * @cond
   6:C:/Workspaces/DAVE-4.4.2-64Bit/MK2_TESTE_ACIONAMENTO2/Libraries/XMCLib/inc\xmc1_flash.h ****  **************************************************************************************************
   7:C:/Workspaces/DAVE-4.4.2-64Bit/MK2_TESTE_ACIONAMENTO2/Libraries/XMCLib/inc\xmc1_flash.h ****  * XMClib v2.1.18 - XMC Peripheral Driver Library 
   8:C:/Workspaces/DAVE-4.4.2-64Bit/MK2_TESTE_ACIONAMENTO2/Libraries/XMCLib/inc\xmc1_flash.h ****  *
   9:C:/Workspaces/DAVE-4.4.2-64Bit/MK2_TESTE_ACIONAMENTO2/Libraries/XMCLib/inc\xmc1_flash.h ****  * Copyright (c) 2015-2018, Infineon Technologies AG
  10:C:/Workspaces/DAVE-4.4.2-64Bit/MK2_TESTE_ACIONAMENTO2/Libraries/XMCLib/inc\xmc1_flash.h ****  * All rights reserved.                        
  11:C:/Workspaces/DAVE-4.4.2-64Bit/MK2_TESTE_ACIONAMENTO2/Libraries/XMCLib/inc\xmc1_flash.h ****  *                                             
  12:C:/Workspaces/DAVE-4.4.2-64Bit/MK2_TESTE_ACIONAMENTO2/Libraries/XMCLib/inc\xmc1_flash.h ****  * Redistribution and use in source and binary forms, with or without modification,are permitted pr
  13:C:/Workspaces/DAVE-4.4.2-64Bit/MK2_TESTE_ACIONAMENTO2/Libraries/XMCLib/inc\xmc1_flash.h ****  * following conditions are met:   
  14:C:/Workspaces/DAVE-4.4.2-64Bit/MK2_TESTE_ACIONAMENTO2/Libraries/XMCLib/inc\xmc1_flash.h ****  *                                                                              
  15:C:/Workspaces/DAVE-4.4.2-64Bit/MK2_TESTE_ACIONAMENTO2/Libraries/XMCLib/inc\xmc1_flash.h ****  * Redistributions of source code must retain the above copyright notice, this list of conditions a
  16:C:/Workspaces/DAVE-4.4.2-64Bit/MK2_TESTE_ACIONAMENTO2/Libraries/XMCLib/inc\xmc1_flash.h ****  * disclaimer.                        
  17:C:/Workspaces/DAVE-4.4.2-64Bit/MK2_TESTE_ACIONAMENTO2/Libraries/XMCLib/inc\xmc1_flash.h ****  * 
  18:C:/Workspaces/DAVE-4.4.2-64Bit/MK2_TESTE_ACIONAMENTO2/Libraries/XMCLib/inc\xmc1_flash.h ****  * Redistributions in binary form must reproduce the above copyright notice, this list of condition
  19:C:/Workspaces/DAVE-4.4.2-64Bit/MK2_TESTE_ACIONAMENTO2/Libraries/XMCLib/inc\xmc1_flash.h ****  * disclaimer in the documentation and/or other materials provided with the distribution.          
  20:C:/Workspaces/DAVE-4.4.2-64Bit/MK2_TESTE_ACIONAMENTO2/Libraries/XMCLib/inc\xmc1_flash.h ****  * 
  21:C:/Workspaces/DAVE-4.4.2-64Bit/MK2_TESTE_ACIONAMENTO2/Libraries/XMCLib/inc\xmc1_flash.h ****  * Neither the name of the copyright holders nor the names of its contributors may be used to endor
  22:C:/Workspaces/DAVE-4.4.2-64Bit/MK2_TESTE_ACIONAMENTO2/Libraries/XMCLib/inc\xmc1_flash.h ****  * products derived from this software without specific prior written permission.                  
  23:C:/Workspaces/DAVE-4.4.2-64Bit/MK2_TESTE_ACIONAMENTO2/Libraries/XMCLib/inc\xmc1_flash.h ****  *                                                                              
  24:C:/Workspaces/DAVE-4.4.2-64Bit/MK2_TESTE_ACIONAMENTO2/Libraries/XMCLib/inc\xmc1_flash.h ****  * THIS SOFTWARE IS PROVIDED BY THE COPYRIGHT HOLDERS AND CONTRIBUTORS "AS IS" AND ANY EXPRESS OR I
  25:C:/Workspaces/DAVE-4.4.2-64Bit/MK2_TESTE_ACIONAMENTO2/Libraries/XMCLib/inc\xmc1_flash.h ****  * INCLUDING, BUT NOT LIMITED TO, THE IMPLIED WARRANTIES OF MERCHANTABILITY AND FITNESS FOR A PARTI
  26:C:/Workspaces/DAVE-4.4.2-64Bit/MK2_TESTE_ACIONAMENTO2/Libraries/XMCLib/inc\xmc1_flash.h ****  * DISCLAIMED. IN NO EVENT SHALL THE COPYRIGHT HOLDER OR CONTRIBUTORS BE LIABLE  FOR ANY DIRECT, IN
  27:C:/Workspaces/DAVE-4.4.2-64Bit/MK2_TESTE_ACIONAMENTO2/Libraries/XMCLib/inc\xmc1_flash.h ****  * SPECIAL, EXEMPLARY, OR CONSEQUENTIAL DAMAGES (INCLUDING, BUT NOT LIMITED TO, PROCUREMENT OF SUBS
  28:C:/Workspaces/DAVE-4.4.2-64Bit/MK2_TESTE_ACIONAMENTO2/Libraries/XMCLib/inc\xmc1_flash.h ****  * SERVICES; LOSS OF USE, DATA, OR PROFITS; OR BUSINESS INTERRUPTION) HOWEVER CAUSED AND ON ANY THE
  29:C:/Workspaces/DAVE-4.4.2-64Bit/MK2_TESTE_ACIONAMENTO2/Libraries/XMCLib/inc\xmc1_flash.h ****  * WHETHER IN CONTRACT, STRICT LIABILITY,OR TORT (INCLUDING NEGLIGENCE OR OTHERWISE) ARISING IN ANY
  30:C:/Workspaces/DAVE-4.4.2-64Bit/MK2_TESTE_ACIONAMENTO2/Libraries/XMCLib/inc\xmc1_flash.h ****  * OF THIS SOFTWARE, EVEN IF ADVISED OF THE POSSIBILITY OF SUCH DAMAGE.                            
  31:C:/Workspaces/DAVE-4.4.2-64Bit/MK2_TESTE_ACIONAMENTO2/Libraries/XMCLib/inc\xmc1_flash.h ****  *                                                                              
  32:C:/Workspaces/DAVE-4.4.2-64Bit/MK2_TESTE_ACIONAMENTO2/Libraries/XMCLib/inc\xmc1_flash.h ****  * To improve the quality of the software, users are encouraged to share modifications, enhancement
  33:C:/Workspaces/DAVE-4.4.2-64Bit/MK2_TESTE_ACIONAMENTO2/Libraries/XMCLib/inc\xmc1_flash.h ****  * Infineon Technologies AG dave@infineon.com).                                                    
  34:C:/Workspaces/DAVE-4.4.2-64Bit/MK2_TESTE_ACIONAMENTO2/Libraries/XMCLib/inc\xmc1_flash.h ****  **************************************************************************************************
  35:C:/Workspaces/DAVE-4.4.2-64Bit/MK2_TESTE_ACIONAMENTO2/Libraries/XMCLib/inc\xmc1_flash.h ****  *
  36:C:/Workspaces/DAVE-4.4.2-64Bit/MK2_TESTE_ACIONAMENTO2/Libraries/XMCLib/inc\xmc1_flash.h ****  * Change History
  37:C:/Workspaces/DAVE-4.4.2-64Bit/MK2_TESTE_ACIONAMENTO2/Libraries/XMCLib/inc\xmc1_flash.h ****  * --------------
  38:C:/Workspaces/DAVE-4.4.2-64Bit/MK2_TESTE_ACIONAMENTO2/Libraries/XMCLib/inc\xmc1_flash.h ****  *
  39:C:/Workspaces/DAVE-4.4.2-64Bit/MK2_TESTE_ACIONAMENTO2/Libraries/XMCLib/inc\xmc1_flash.h ****  * 2014-12-10:
  40:C:/Workspaces/DAVE-4.4.2-64Bit/MK2_TESTE_ACIONAMENTO2/Libraries/XMCLib/inc\xmc1_flash.h ****  *     - Initial <br>
  41:C:/Workspaces/DAVE-4.4.2-64Bit/MK2_TESTE_ACIONAMENTO2/Libraries/XMCLib/inc\xmc1_flash.h ****  * 2015-02-20:
  42:C:/Workspaces/DAVE-4.4.2-64Bit/MK2_TESTE_ACIONAMENTO2/Libraries/XMCLib/inc\xmc1_flash.h ****  *     - Updated for Documentation related changes<br>
  43:C:/Workspaces/DAVE-4.4.2-64Bit/MK2_TESTE_ACIONAMENTO2/Libraries/XMCLib/inc\xmc1_flash.h ****  * 2015-06-20: 
  44:C:/Workspaces/DAVE-4.4.2-64Bit/MK2_TESTE_ACIONAMENTO2/Libraries/XMCLib/inc\xmc1_flash.h ****  *     - Removed version macros and declaration of GetDriverVersion API 
  45:C:/Workspaces/DAVE-4.4.2-64Bit/MK2_TESTE_ACIONAMENTO2/Libraries/XMCLib/inc\xmc1_flash.h ****  *
  46:C:/Workspaces/DAVE-4.4.2-64Bit/MK2_TESTE_ACIONAMENTO2/Libraries/XMCLib/inc\xmc1_flash.h ****  * @endcond 
  47:C:/Workspaces/DAVE-4.4.2-64Bit/MK2_TESTE_ACIONAMENTO2/Libraries/XMCLib/inc\xmc1_flash.h ****  *
  48:C:/Workspaces/DAVE-4.4.2-64Bit/MK2_TESTE_ACIONAMENTO2/Libraries/XMCLib/inc\xmc1_flash.h ****  */
  49:C:/Workspaces/DAVE-4.4.2-64Bit/MK2_TESTE_ACIONAMENTO2/Libraries/XMCLib/inc\xmc1_flash.h **** 
  50:C:/Workspaces/DAVE-4.4.2-64Bit/MK2_TESTE_ACIONAMENTO2/Libraries/XMCLib/inc\xmc1_flash.h **** #ifndef XMC1_FLASH_H
  51:C:/Workspaces/DAVE-4.4.2-64Bit/MK2_TESTE_ACIONAMENTO2/Libraries/XMCLib/inc\xmc1_flash.h **** #define XMC1_FLASH_H
  52:C:/Workspaces/DAVE-4.4.2-64Bit/MK2_TESTE_ACIONAMENTO2/Libraries/XMCLib/inc\xmc1_flash.h **** 
  53:C:/Workspaces/DAVE-4.4.2-64Bit/MK2_TESTE_ACIONAMENTO2/Libraries/XMCLib/inc\xmc1_flash.h **** /**************************************************************************************************
  54:C:/Workspaces/DAVE-4.4.2-64Bit/MK2_TESTE_ACIONAMENTO2/Libraries/XMCLib/inc\xmc1_flash.h ****  * HEADER FILES
  55:C:/Workspaces/DAVE-4.4.2-64Bit/MK2_TESTE_ACIONAMENTO2/Libraries/XMCLib/inc\xmc1_flash.h ****  **************************************************************************************************
  56:C:/Workspaces/DAVE-4.4.2-64Bit/MK2_TESTE_ACIONAMENTO2/Libraries/XMCLib/inc\xmc1_flash.h **** 
  57:C:/Workspaces/DAVE-4.4.2-64Bit/MK2_TESTE_ACIONAMENTO2/Libraries/XMCLib/inc\xmc1_flash.h **** #include "xmc_common.h"
  58:C:/Workspaces/DAVE-4.4.2-64Bit/MK2_TESTE_ACIONAMENTO2/Libraries/XMCLib/inc\xmc1_flash.h **** 
  59:C:/Workspaces/DAVE-4.4.2-64Bit/MK2_TESTE_ACIONAMENTO2/Libraries/XMCLib/inc\xmc1_flash.h **** #if UC_FAMILY == XMC1
  60:C:/Workspaces/DAVE-4.4.2-64Bit/MK2_TESTE_ACIONAMENTO2/Libraries/XMCLib/inc\xmc1_flash.h **** 
  61:C:/Workspaces/DAVE-4.4.2-64Bit/MK2_TESTE_ACIONAMENTO2/Libraries/XMCLib/inc\xmc1_flash.h **** #include <XMC1000_RomFunctionTable.h>
  62:C:/Workspaces/DAVE-4.4.2-64Bit/MK2_TESTE_ACIONAMENTO2/Libraries/XMCLib/inc\xmc1_flash.h **** 
  63:C:/Workspaces/DAVE-4.4.2-64Bit/MK2_TESTE_ACIONAMENTO2/Libraries/XMCLib/inc\xmc1_flash.h **** /**
  64:C:/Workspaces/DAVE-4.4.2-64Bit/MK2_TESTE_ACIONAMENTO2/Libraries/XMCLib/inc\xmc1_flash.h **** * @addtogroup XMClib XMC Peripheral Library
  65:C:/Workspaces/DAVE-4.4.2-64Bit/MK2_TESTE_ACIONAMENTO2/Libraries/XMCLib/inc\xmc1_flash.h **** * @{
  66:C:/Workspaces/DAVE-4.4.2-64Bit/MK2_TESTE_ACIONAMENTO2/Libraries/XMCLib/inc\xmc1_flash.h **** */
  67:C:/Workspaces/DAVE-4.4.2-64Bit/MK2_TESTE_ACIONAMENTO2/Libraries/XMCLib/inc\xmc1_flash.h **** 
  68:C:/Workspaces/DAVE-4.4.2-64Bit/MK2_TESTE_ACIONAMENTO2/Libraries/XMCLib/inc\xmc1_flash.h **** /**
  69:C:/Workspaces/DAVE-4.4.2-64Bit/MK2_TESTE_ACIONAMENTO2/Libraries/XMCLib/inc\xmc1_flash.h **** * @addtogroup FLASH
  70:C:/Workspaces/DAVE-4.4.2-64Bit/MK2_TESTE_ACIONAMENTO2/Libraries/XMCLib/inc\xmc1_flash.h **** * @{
  71:C:/Workspaces/DAVE-4.4.2-64Bit/MK2_TESTE_ACIONAMENTO2/Libraries/XMCLib/inc\xmc1_flash.h **** */
  72:C:/Workspaces/DAVE-4.4.2-64Bit/MK2_TESTE_ACIONAMENTO2/Libraries/XMCLib/inc\xmc1_flash.h **** 
  73:C:/Workspaces/DAVE-4.4.2-64Bit/MK2_TESTE_ACIONAMENTO2/Libraries/XMCLib/inc\xmc1_flash.h **** /**************************************************************************************************
  74:C:/Workspaces/DAVE-4.4.2-64Bit/MK2_TESTE_ACIONAMENTO2/Libraries/XMCLib/inc\xmc1_flash.h ****  * MACROS
  75:C:/Workspaces/DAVE-4.4.2-64Bit/MK2_TESTE_ACIONAMENTO2/Libraries/XMCLib/inc\xmc1_flash.h ****  **************************************************************************************************
  76:C:/Workspaces/DAVE-4.4.2-64Bit/MK2_TESTE_ACIONAMENTO2/Libraries/XMCLib/inc\xmc1_flash.h **** 
  77:C:/Workspaces/DAVE-4.4.2-64Bit/MK2_TESTE_ACIONAMENTO2/Libraries/XMCLib/inc\xmc1_flash.h **** #define XMC_FLASH_PAGES_PER_SECTOR (16U)    /**< Number of pages in a sector. A page consists of 16
  78:C:/Workspaces/DAVE-4.4.2-64Bit/MK2_TESTE_ACIONAMENTO2/Libraries/XMCLib/inc\xmc1_flash.h **** #define XMC_FLASH_BLOCKS_PER_PAGE  (16U)    /**< Number of blocks in a page. A block consists of 4 
  79:C:/Workspaces/DAVE-4.4.2-64Bit/MK2_TESTE_ACIONAMENTO2/Libraries/XMCLib/inc\xmc1_flash.h **** 
  80:C:/Workspaces/DAVE-4.4.2-64Bit/MK2_TESTE_ACIONAMENTO2/Libraries/XMCLib/inc\xmc1_flash.h **** #define XMC_FLASH_BYTES_PER_SECTOR (4096U)  /**< Number of bytes in a sector. (16 pages * 256 bytes
  81:C:/Workspaces/DAVE-4.4.2-64Bit/MK2_TESTE_ACIONAMENTO2/Libraries/XMCLib/inc\xmc1_flash.h **** #define XMC_FLASH_BYTES_PER_PAGE   (256U)   /**< Number of bytes in a page. (16 blocks * 16 bytes =
  82:C:/Workspaces/DAVE-4.4.2-64Bit/MK2_TESTE_ACIONAMENTO2/Libraries/XMCLib/inc\xmc1_flash.h **** #define XMC_FLASH_BYTES_PER_BLOCK  (16U)    /**< Number of bytes in a block. (128 bits = 16 bytes)*
  83:C:/Workspaces/DAVE-4.4.2-64Bit/MK2_TESTE_ACIONAMENTO2/Libraries/XMCLib/inc\xmc1_flash.h **** 
  84:C:/Workspaces/DAVE-4.4.2-64Bit/MK2_TESTE_ACIONAMENTO2/Libraries/XMCLib/inc\xmc1_flash.h **** #define XMC_FLASH_WORDS_PER_SECTOR (1024U)  /**< Number of words in a sector. (16 pages * 64 words 
  85:C:/Workspaces/DAVE-4.4.2-64Bit/MK2_TESTE_ACIONAMENTO2/Libraries/XMCLib/inc\xmc1_flash.h **** #define XMC_FLASH_WORDS_PER_PAGE   (64U)    /**< Number of words in a page. (16 blocks * 4 words = 
  86:C:/Workspaces/DAVE-4.4.2-64Bit/MK2_TESTE_ACIONAMENTO2/Libraries/XMCLib/inc\xmc1_flash.h **** #define XMC_FLASH_WORDS_PER_BLOCK  (4U)     /**< Number of words in a block. (128 bit / 32 bit = 4 
  87:C:/Workspaces/DAVE-4.4.2-64Bit/MK2_TESTE_ACIONAMENTO2/Libraries/XMCLib/inc\xmc1_flash.h **** 
  88:C:/Workspaces/DAVE-4.4.2-64Bit/MK2_TESTE_ACIONAMENTO2/Libraries/XMCLib/inc\xmc1_flash.h **** #define FLASH_BLOCK_ADDR_MASK      (15U)    /*   Bitwise AND with block address is done to check th
  89:C:/Workspaces/DAVE-4.4.2-64Bit/MK2_TESTE_ACIONAMENTO2/Libraries/XMCLib/inc\xmc1_flash.h ****                                                  Applicable to XMC_FLASH_WriteBlocks() and XMC_FLAS
  90:C:/Workspaces/DAVE-4.4.2-64Bit/MK2_TESTE_ACIONAMENTO2/Libraries/XMCLib/inc\xmc1_flash.h ****                                                  APIs.*/
  91:C:/Workspaces/DAVE-4.4.2-64Bit/MK2_TESTE_ACIONAMENTO2/Libraries/XMCLib/inc\xmc1_flash.h **** #define FLASH_PAGE_ADDR_MASK       (255U)   /*   Bitwise AND with page address is done to check the
  92:C:/Workspaces/DAVE-4.4.2-64Bit/MK2_TESTE_ACIONAMENTO2/Libraries/XMCLib/inc\xmc1_flash.h ****                                                  Applicable to XMC_FLASH_ErasePages() API.*/
  93:C:/Workspaces/DAVE-4.4.2-64Bit/MK2_TESTE_ACIONAMENTO2/Libraries/XMCLib/inc\xmc1_flash.h **** #define FLASH_SECTOR_ADDR_MASK     (4095U)  /*   Bitwise AND with sector address is done to check t
  94:C:/Workspaces/DAVE-4.4.2-64Bit/MK2_TESTE_ACIONAMENTO2/Libraries/XMCLib/inc\xmc1_flash.h ****                                                  Applicable to XMC_FLASH_EraseSector API.*/
  95:C:/Workspaces/DAVE-4.4.2-64Bit/MK2_TESTE_ACIONAMENTO2/Libraries/XMCLib/inc\xmc1_flash.h **** 
  96:C:/Workspaces/DAVE-4.4.2-64Bit/MK2_TESTE_ACIONAMENTO2/Libraries/XMCLib/inc\xmc1_flash.h **** #define XMC_FLASH_BASE             (0x10001000U) /**< Starting address of flash for XMC1 family of 
  97:C:/Workspaces/DAVE-4.4.2-64Bit/MK2_TESTE_ACIONAMENTO2/Libraries/XMCLib/inc\xmc1_flash.h **** 
  98:C:/Workspaces/DAVE-4.4.2-64Bit/MK2_TESTE_ACIONAMENTO2/Libraries/XMCLib/inc\xmc1_flash.h **** /**************************************************************************************************
  99:C:/Workspaces/DAVE-4.4.2-64Bit/MK2_TESTE_ACIONAMENTO2/Libraries/XMCLib/inc\xmc1_flash.h ****  * ENUMS
 100:C:/Workspaces/DAVE-4.4.2-64Bit/MK2_TESTE_ACIONAMENTO2/Libraries/XMCLib/inc\xmc1_flash.h ****  **************************************************************************************************
 101:C:/Workspaces/DAVE-4.4.2-64Bit/MK2_TESTE_ACIONAMENTO2/Libraries/XMCLib/inc\xmc1_flash.h **** /**
 102:C:/Workspaces/DAVE-4.4.2-64Bit/MK2_TESTE_ACIONAMENTO2/Libraries/XMCLib/inc\xmc1_flash.h ****  *  Defines the status of flash, to verify the flash related API calls. Use type \a XMC_FLASH_STATU
 103:C:/Workspaces/DAVE-4.4.2-64Bit/MK2_TESTE_ACIONAMENTO2/Libraries/XMCLib/inc\xmc1_flash.h ****  *  The members defines the respective masked status bits of \a NVMSTATUS register.
 104:C:/Workspaces/DAVE-4.4.2-64Bit/MK2_TESTE_ACIONAMENTO2/Libraries/XMCLib/inc\xmc1_flash.h ****  */
 105:C:/Workspaces/DAVE-4.4.2-64Bit/MK2_TESTE_ACIONAMENTO2/Libraries/XMCLib/inc\xmc1_flash.h **** typedef enum XMC_FLASH_STATUS
 106:C:/Workspaces/DAVE-4.4.2-64Bit/MK2_TESTE_ACIONAMENTO2/Libraries/XMCLib/inc\xmc1_flash.h **** {
 107:C:/Workspaces/DAVE-4.4.2-64Bit/MK2_TESTE_ACIONAMENTO2/Libraries/XMCLib/inc\xmc1_flash.h ****   XMC_FLASH_STATUS_OK                   = 0U,                          /**< Flash related operation
 108:C:/Workspaces/DAVE-4.4.2-64Bit/MK2_TESTE_ACIONAMENTO2/Libraries/XMCLib/inc\xmc1_flash.h ****                                                                             completed*/
 109:C:/Workspaces/DAVE-4.4.2-64Bit/MK2_TESTE_ACIONAMENTO2/Libraries/XMCLib/inc\xmc1_flash.h ****   XMC_FLASH_STATUS_BUSY                 = NVM_NVMSTATUS_BUSY_Msk    ,  /**< Cannot execute the flas
 110:C:/Workspaces/DAVE-4.4.2-64Bit/MK2_TESTE_ACIONAMENTO2/Libraries/XMCLib/inc\xmc1_flash.h ****                                                                             another operation is in
 111:C:/Workspaces/DAVE-4.4.2-64Bit/MK2_TESTE_ACIONAMENTO2/Libraries/XMCLib/inc\xmc1_flash.h ****   XMC_FLASH_STATUS_SLEEP_MODE           = NVM_NVMSTATUS_SLEEP_Msk   ,  /**< Flash is in sleep mode*
 112:C:/Workspaces/DAVE-4.4.2-64Bit/MK2_TESTE_ACIONAMENTO2/Libraries/XMCLib/inc\xmc1_flash.h ****   XMC_FLASH_STATUS_VERIFY_ERROR         = NVM_NVMSTATUS_VERR_Msk    ,  /**< Flash reported a verifi
 113:C:/Workspaces/DAVE-4.4.2-64Bit/MK2_TESTE_ACIONAMENTO2/Libraries/XMCLib/inc\xmc1_flash.h ****   XMC_FLASH_STATUS_ECC1_READ_ERROR      = NVM_NVMSTATUS_ECC1READ_Msk,  /**< Flash reports a single 
 114:C:/Workspaces/DAVE-4.4.2-64Bit/MK2_TESTE_ACIONAMENTO2/Libraries/XMCLib/inc\xmc1_flash.h ****                                                                             is automatically correc
 115:C:/Workspaces/DAVE-4.4.2-64Bit/MK2_TESTE_ACIONAMENTO2/Libraries/XMCLib/inc\xmc1_flash.h ****   XMC_FLASH_STATUS_ECC2_READ_ERROR      = NVM_NVMSTATUS_ECC2READ_Msk,  /**< Flash reported at least
 116:C:/Workspaces/DAVE-4.4.2-64Bit/MK2_TESTE_ACIONAMENTO2/Libraries/XMCLib/inc\xmc1_flash.h ****   XMC_FLASH_STATUS_WRITE_PROTOCOL_ERROR = NVM_NVMSTATUS_WRPERR_Msk  ,  /**< Write/Verify operation 
 117:C:/Workspaces/DAVE-4.4.2-64Bit/MK2_TESTE_ACIONAMENTO2/Libraries/XMCLib/inc\xmc1_flash.h ****                                                                             failed due to protocol 
 118:C:/Workspaces/DAVE-4.4.2-64Bit/MK2_TESTE_ACIONAMENTO2/Libraries/XMCLib/inc\xmc1_flash.h ****                                                                             protected sectors*/
 119:C:/Workspaces/DAVE-4.4.2-64Bit/MK2_TESTE_ACIONAMENTO2/Libraries/XMCLib/inc\xmc1_flash.h **** } XMC_FLASH_STATUS_t;
 120:C:/Workspaces/DAVE-4.4.2-64Bit/MK2_TESTE_ACIONAMENTO2/Libraries/XMCLib/inc\xmc1_flash.h **** 
 121:C:/Workspaces/DAVE-4.4.2-64Bit/MK2_TESTE_ACIONAMENTO2/Libraries/XMCLib/inc\xmc1_flash.h **** /**
 122:C:/Workspaces/DAVE-4.4.2-64Bit/MK2_TESTE_ACIONAMENTO2/Libraries/XMCLib/inc\xmc1_flash.h ****  *  Defines NVM ready interrupt event. Use type \a XMC_FLASH_EVENT_t for this enum.
 123:C:/Workspaces/DAVE-4.4.2-64Bit/MK2_TESTE_ACIONAMENTO2/Libraries/XMCLib/inc\xmc1_flash.h ****  */
 124:C:/Workspaces/DAVE-4.4.2-64Bit/MK2_TESTE_ACIONAMENTO2/Libraries/XMCLib/inc\xmc1_flash.h **** typedef enum XMC_FLASH_EVENT
 125:C:/Workspaces/DAVE-4.4.2-64Bit/MK2_TESTE_ACIONAMENTO2/Libraries/XMCLib/inc\xmc1_flash.h **** {
 126:C:/Workspaces/DAVE-4.4.2-64Bit/MK2_TESTE_ACIONAMENTO2/Libraries/XMCLib/inc\xmc1_flash.h ****   XMC_FLASH_EVENT_READY = NVM_NVMCONF_INT_ON_Msk  /**< Generates the NVM ready interrupts on flash 
 127:C:/Workspaces/DAVE-4.4.2-64Bit/MK2_TESTE_ACIONAMENTO2/Libraries/XMCLib/inc\xmc1_flash.h **** } XMC_FLASH_EVENT_t;
 128:C:/Workspaces/DAVE-4.4.2-64Bit/MK2_TESTE_ACIONAMENTO2/Libraries/XMCLib/inc\xmc1_flash.h **** 
 129:C:/Workspaces/DAVE-4.4.2-64Bit/MK2_TESTE_ACIONAMENTO2/Libraries/XMCLib/inc\xmc1_flash.h **** /**
 130:C:/Workspaces/DAVE-4.4.2-64Bit/MK2_TESTE_ACIONAMENTO2/Libraries/XMCLib/inc\xmc1_flash.h ****  *  Defines hard read levels for strict data verification. Use type \a XMC_FLASH_HARDREAD_LEVEL_t f
 131:C:/Workspaces/DAVE-4.4.2-64Bit/MK2_TESTE_ACIONAMENTO2/Libraries/XMCLib/inc\xmc1_flash.h ****  *  These \a hardread levels provide some margin to ensure that the data is really programmed with 
 132:C:/Workspaces/DAVE-4.4.2-64Bit/MK2_TESTE_ACIONAMENTO2/Libraries/XMCLib/inc\xmc1_flash.h ****  *  levels for written and erased bits.
 133:C:/Workspaces/DAVE-4.4.2-64Bit/MK2_TESTE_ACIONAMENTO2/Libraries/XMCLib/inc\xmc1_flash.h ****  */
 134:C:/Workspaces/DAVE-4.4.2-64Bit/MK2_TESTE_ACIONAMENTO2/Libraries/XMCLib/inc\xmc1_flash.h **** typedef enum XMC_FLASH_HARDREAD_LEVEL
 135:C:/Workspaces/DAVE-4.4.2-64Bit/MK2_TESTE_ACIONAMENTO2/Libraries/XMCLib/inc\xmc1_flash.h **** {
 136:C:/Workspaces/DAVE-4.4.2-64Bit/MK2_TESTE_ACIONAMENTO2/Libraries/XMCLib/inc\xmc1_flash.h ****   XMC_FLASH_HARDREAD_LEVEL_NORMAL  = (uint16_t)0x0, /**< No \a hardread level verification enabled 
 137:C:/Workspaces/DAVE-4.4.2-64Bit/MK2_TESTE_ACIONAMENTO2/Libraries/XMCLib/inc\xmc1_flash.h ****   XMC_FLASH_HARDREAD_LEVEL_WRITTEN = (uint16_t)0x1, /**< Enables strict margin compare for written 
 138:C:/Workspaces/DAVE-4.4.2-64Bit/MK2_TESTE_ACIONAMENTO2/Libraries/XMCLib/inc\xmc1_flash.h ****   XMC_FLASH_HARDREAD_LEVEL_ERASED  = (uint16_t)0x2  /**< Enables strict margin compare for erased d
 139:C:/Workspaces/DAVE-4.4.2-64Bit/MK2_TESTE_ACIONAMENTO2/Libraries/XMCLib/inc\xmc1_flash.h **** } XMC_FLASH_HARDREAD_LEVEL_t;
 140:C:/Workspaces/DAVE-4.4.2-64Bit/MK2_TESTE_ACIONAMENTO2/Libraries/XMCLib/inc\xmc1_flash.h **** 
 141:C:/Workspaces/DAVE-4.4.2-64Bit/MK2_TESTE_ACIONAMENTO2/Libraries/XMCLib/inc\xmc1_flash.h **** /**************************************************************************************************
 142:C:/Workspaces/DAVE-4.4.2-64Bit/MK2_TESTE_ACIONAMENTO2/Libraries/XMCLib/inc\xmc1_flash.h ****  * API PROTOTYPES
 143:C:/Workspaces/DAVE-4.4.2-64Bit/MK2_TESTE_ACIONAMENTO2/Libraries/XMCLib/inc\xmc1_flash.h ****  **************************************************************************************************
 144:C:/Workspaces/DAVE-4.4.2-64Bit/MK2_TESTE_ACIONAMENTO2/Libraries/XMCLib/inc\xmc1_flash.h **** 
 145:C:/Workspaces/DAVE-4.4.2-64Bit/MK2_TESTE_ACIONAMENTO2/Libraries/XMCLib/inc\xmc1_flash.h **** #ifdef __cplusplus
 146:C:/Workspaces/DAVE-4.4.2-64Bit/MK2_TESTE_ACIONAMENTO2/Libraries/XMCLib/inc\xmc1_flash.h **** extern "C" {
 147:C:/Workspaces/DAVE-4.4.2-64Bit/MK2_TESTE_ACIONAMENTO2/Libraries/XMCLib/inc\xmc1_flash.h **** #endif
 148:C:/Workspaces/DAVE-4.4.2-64Bit/MK2_TESTE_ACIONAMENTO2/Libraries/XMCLib/inc\xmc1_flash.h **** 
 149:C:/Workspaces/DAVE-4.4.2-64Bit/MK2_TESTE_ACIONAMENTO2/Libraries/XMCLib/inc\xmc1_flash.h **** /**
 150:C:/Workspaces/DAVE-4.4.2-64Bit/MK2_TESTE_ACIONAMENTO2/Libraries/XMCLib/inc\xmc1_flash.h ****  *
 151:C:/Workspaces/DAVE-4.4.2-64Bit/MK2_TESTE_ACIONAMENTO2/Libraries/XMCLib/inc\xmc1_flash.h ****  * @param address   Pointer to the starting address of the flash page from where the erase starts
 152:C:/Workspaces/DAVE-4.4.2-64Bit/MK2_TESTE_ACIONAMENTO2/Libraries/XMCLib/inc\xmc1_flash.h ****  * @param num_pages Number of pages to be erased.<BR> Range: [1 to (flash size / 256)]
 153:C:/Workspaces/DAVE-4.4.2-64Bit/MK2_TESTE_ACIONAMENTO2/Libraries/XMCLib/inc\xmc1_flash.h ****  *
 154:C:/Workspaces/DAVE-4.4.2-64Bit/MK2_TESTE_ACIONAMENTO2/Libraries/XMCLib/inc\xmc1_flash.h ****  * @return None
 155:C:/Workspaces/DAVE-4.4.2-64Bit/MK2_TESTE_ACIONAMENTO2/Libraries/XMCLib/inc\xmc1_flash.h ****  *
 156:C:/Workspaces/DAVE-4.4.2-64Bit/MK2_TESTE_ACIONAMENTO2/Libraries/XMCLib/inc\xmc1_flash.h ****  * \par<b>Description:</b><BR>
 157:C:/Workspaces/DAVE-4.4.2-64Bit/MK2_TESTE_ACIONAMENTO2/Libraries/XMCLib/inc\xmc1_flash.h ****  * Erases a set of flash memory pages.<BR><BR>
 158:C:/Workspaces/DAVE-4.4.2-64Bit/MK2_TESTE_ACIONAMENTO2/Libraries/XMCLib/inc\xmc1_flash.h ****  * Erase starts from the  specified \a address.
 159:C:/Workspaces/DAVE-4.4.2-64Bit/MK2_TESTE_ACIONAMENTO2/Libraries/XMCLib/inc\xmc1_flash.h ****  * It erases a maximum number of \a num_pages flash pages. The maximum erasable pages are limited t
 160:C:/Workspaces/DAVE-4.4.2-64Bit/MK2_TESTE_ACIONAMENTO2/Libraries/XMCLib/inc\xmc1_flash.h ****  * microcontroller flash size. It sets NVMPROG register to continuous page erase mode before erase 
 161:C:/Workspaces/DAVE-4.4.2-64Bit/MK2_TESTE_ACIONAMENTO2/Libraries/XMCLib/inc\xmc1_flash.h ****  * it action back to normal state on completion. Call XMC_FLASH_GetStatus() after calling this API 
 162:C:/Workspaces/DAVE-4.4.2-64Bit/MK2_TESTE_ACIONAMENTO2/Libraries/XMCLib/inc\xmc1_flash.h ****  * operation.\n
 163:C:/Workspaces/DAVE-4.4.2-64Bit/MK2_TESTE_ACIONAMENTO2/Libraries/XMCLib/inc\xmc1_flash.h ****  *
 164:C:/Workspaces/DAVE-4.4.2-64Bit/MK2_TESTE_ACIONAMENTO2/Libraries/XMCLib/inc\xmc1_flash.h ****  * \par<b>Note:</b><BR>
 165:C:/Workspaces/DAVE-4.4.2-64Bit/MK2_TESTE_ACIONAMENTO2/Libraries/XMCLib/inc\xmc1_flash.h ****  * Flash will be in busy state during erase operation. Hence no operations on flash are allowed unt
 166:C:/Workspaces/DAVE-4.4.2-64Bit/MK2_TESTE_ACIONAMENTO2/Libraries/XMCLib/inc\xmc1_flash.h ****  *
 167:C:/Workspaces/DAVE-4.4.2-64Bit/MK2_TESTE_ACIONAMENTO2/Libraries/XMCLib/inc\xmc1_flash.h ****  * \par<b>Related APIs:</b><BR>
 168:C:/Workspaces/DAVE-4.4.2-64Bit/MK2_TESTE_ACIONAMENTO2/Libraries/XMCLib/inc\xmc1_flash.h ****  * XMC_FLASH_EraseSector(), XMC_FLASH_ErasePage() \n\n\n
 169:C:/Workspaces/DAVE-4.4.2-64Bit/MK2_TESTE_ACIONAMENTO2/Libraries/XMCLib/inc\xmc1_flash.h ****  *
 170:C:/Workspaces/DAVE-4.4.2-64Bit/MK2_TESTE_ACIONAMENTO2/Libraries/XMCLib/inc\xmc1_flash.h ****  * \par<b>Related APIs:</b><BR>
 171:C:/Workspaces/DAVE-4.4.2-64Bit/MK2_TESTE_ACIONAMENTO2/Libraries/XMCLib/inc\xmc1_flash.h ****  * None 
 172:C:/Workspaces/DAVE-4.4.2-64Bit/MK2_TESTE_ACIONAMENTO2/Libraries/XMCLib/inc\xmc1_flash.h ****  * 
 173:C:/Workspaces/DAVE-4.4.2-64Bit/MK2_TESTE_ACIONAMENTO2/Libraries/XMCLib/inc\xmc1_flash.h ****  */
 174:C:/Workspaces/DAVE-4.4.2-64Bit/MK2_TESTE_ACIONAMENTO2/Libraries/XMCLib/inc\xmc1_flash.h **** void XMC_FLASH_ErasePages(uint32_t *address, uint32_t num_pages);
 175:C:/Workspaces/DAVE-4.4.2-64Bit/MK2_TESTE_ACIONAMENTO2/Libraries/XMCLib/inc\xmc1_flash.h **** 
 176:C:/Workspaces/DAVE-4.4.2-64Bit/MK2_TESTE_ACIONAMENTO2/Libraries/XMCLib/inc\xmc1_flash.h **** /**
 177:C:/Workspaces/DAVE-4.4.2-64Bit/MK2_TESTE_ACIONAMENTO2/Libraries/XMCLib/inc\xmc1_flash.h ****  *
 178:C:/Workspaces/DAVE-4.4.2-64Bit/MK2_TESTE_ACIONAMENTO2/Libraries/XMCLib/inc\xmc1_flash.h ****  * @param address    Pointer to the starting address of flash block from where the write starts.
 179:C:/Workspaces/DAVE-4.4.2-64Bit/MK2_TESTE_ACIONAMENTO2/Libraries/XMCLib/inc\xmc1_flash.h ****  * @param data       Pointer to the source address where targeted data blocks are located.
 180:C:/Workspaces/DAVE-4.4.2-64Bit/MK2_TESTE_ACIONAMENTO2/Libraries/XMCLib/inc\xmc1_flash.h ****  * @param num_blocks Maximum number of flash block writes needed.<BR> Range:  [1 to (flash size / 1
 181:C:/Workspaces/DAVE-4.4.2-64Bit/MK2_TESTE_ACIONAMENTO2/Libraries/XMCLib/inc\xmc1_flash.h ****  * @param verify     If \a true, hardware verification after block write is enabled else disabled.
 182:C:/Workspaces/DAVE-4.4.2-64Bit/MK2_TESTE_ACIONAMENTO2/Libraries/XMCLib/inc\xmc1_flash.h ****  *
 183:C:/Workspaces/DAVE-4.4.2-64Bit/MK2_TESTE_ACIONAMENTO2/Libraries/XMCLib/inc\xmc1_flash.h ****  * @return None
 184:C:/Workspaces/DAVE-4.4.2-64Bit/MK2_TESTE_ACIONAMENTO2/Libraries/XMCLib/inc\xmc1_flash.h ****  *
 185:C:/Workspaces/DAVE-4.4.2-64Bit/MK2_TESTE_ACIONAMENTO2/Libraries/XMCLib/inc\xmc1_flash.h ****  * \par<b>Description:</b><br>
 186:C:/Workspaces/DAVE-4.4.2-64Bit/MK2_TESTE_ACIONAMENTO2/Libraries/XMCLib/inc\xmc1_flash.h ****  * Writes a set of data blocks into the flash.\n\n Minimum possible writable area is 16 byte block.
 187:C:/Workspaces/DAVE-4.4.2-64Bit/MK2_TESTE_ACIONAMENTO2/Libraries/XMCLib/inc\xmc1_flash.h ****  * register to continuous block write mode before write and resets it action back to normal state o
 188:C:/Workspaces/DAVE-4.4.2-64Bit/MK2_TESTE_ACIONAMENTO2/Libraries/XMCLib/inc\xmc1_flash.h ****  * Call XMC_FLASH_GetStatus() API after calling this API to verify the erase operation.
 189:C:/Workspaces/DAVE-4.4.2-64Bit/MK2_TESTE_ACIONAMENTO2/Libraries/XMCLib/inc\xmc1_flash.h ****  *
 190:C:/Workspaces/DAVE-4.4.2-64Bit/MK2_TESTE_ACIONAMENTO2/Libraries/XMCLib/inc\xmc1_flash.h ****  * \par<b>Note</b><br>
 191:C:/Workspaces/DAVE-4.4.2-64Bit/MK2_TESTE_ACIONAMENTO2/Libraries/XMCLib/inc\xmc1_flash.h ****  * Flash will be busy state during write is ongoing, hence no operations allowed until it completes
 192:C:/Workspaces/DAVE-4.4.2-64Bit/MK2_TESTE_ACIONAMENTO2/Libraries/XMCLib/inc\xmc1_flash.h ****  *
 193:C:/Workspaces/DAVE-4.4.2-64Bit/MK2_TESTE_ACIONAMENTO2/Libraries/XMCLib/inc\xmc1_flash.h ****  * \par<b>Related APIs:</b><BR>
 194:C:/Workspaces/DAVE-4.4.2-64Bit/MK2_TESTE_ACIONAMENTO2/Libraries/XMCLib/inc\xmc1_flash.h ****  * None 
 195:C:/Workspaces/DAVE-4.4.2-64Bit/MK2_TESTE_ACIONAMENTO2/Libraries/XMCLib/inc\xmc1_flash.h ****  * 
 196:C:/Workspaces/DAVE-4.4.2-64Bit/MK2_TESTE_ACIONAMENTO2/Libraries/XMCLib/inc\xmc1_flash.h ****  */
 197:C:/Workspaces/DAVE-4.4.2-64Bit/MK2_TESTE_ACIONAMENTO2/Libraries/XMCLib/inc\xmc1_flash.h **** void XMC_FLASH_WriteBlocks(uint32_t *address, const uint32_t *data, uint32_t num_blocks, bool verif
 198:C:/Workspaces/DAVE-4.4.2-64Bit/MK2_TESTE_ACIONAMENTO2/Libraries/XMCLib/inc\xmc1_flash.h **** 
 199:C:/Workspaces/DAVE-4.4.2-64Bit/MK2_TESTE_ACIONAMENTO2/Libraries/XMCLib/inc\xmc1_flash.h **** /**
 200:C:/Workspaces/DAVE-4.4.2-64Bit/MK2_TESTE_ACIONAMENTO2/Libraries/XMCLib/inc\xmc1_flash.h ****  *
 201:C:/Workspaces/DAVE-4.4.2-64Bit/MK2_TESTE_ACIONAMENTO2/Libraries/XMCLib/inc\xmc1_flash.h ****  * @param address    Pointer to the starting address of flash block from where the verification sta
 202:C:/Workspaces/DAVE-4.4.2-64Bit/MK2_TESTE_ACIONAMENTO2/Libraries/XMCLib/inc\xmc1_flash.h ****  * @param data       Pointer to the source address where targeted data blocks are located.
 203:C:/Workspaces/DAVE-4.4.2-64Bit/MK2_TESTE_ACIONAMENTO2/Libraries/XMCLib/inc\xmc1_flash.h ****  * @param num_blocks Maximum number of flash blocks writes needed.<BR> Range:  [1 to (flash size / 
 204:C:/Workspaces/DAVE-4.4.2-64Bit/MK2_TESTE_ACIONAMENTO2/Libraries/XMCLib/inc\xmc1_flash.h ****  *
 205:C:/Workspaces/DAVE-4.4.2-64Bit/MK2_TESTE_ACIONAMENTO2/Libraries/XMCLib/inc\xmc1_flash.h ****  * @return None
 206:C:/Workspaces/DAVE-4.4.2-64Bit/MK2_TESTE_ACIONAMENTO2/Libraries/XMCLib/inc\xmc1_flash.h ****  *
 207:C:/Workspaces/DAVE-4.4.2-64Bit/MK2_TESTE_ACIONAMENTO2/Libraries/XMCLib/inc\xmc1_flash.h ****  * \par<b>Description:</b><br>
 208:C:/Workspaces/DAVE-4.4.2-64Bit/MK2_TESTE_ACIONAMENTO2/Libraries/XMCLib/inc\xmc1_flash.h ****  * Performs verification of written data blocks.\n\n After calling XMC_FLASH_WriteBlocks() API, cal
 209:C:/Workspaces/DAVE-4.4.2-64Bit/MK2_TESTE_ACIONAMENTO2/Libraries/XMCLib/inc\xmc1_flash.h ****  * verify the correctness of written blocks. It sets the \a NVMPROG register into continuous block 
 210:C:/Workspaces/DAVE-4.4.2-64Bit/MK2_TESTE_ACIONAMENTO2/Libraries/XMCLib/inc\xmc1_flash.h ****  * write and resets it action back to normal state on completion. It reads back the written data bl
 211:C:/Workspaces/DAVE-4.4.2-64Bit/MK2_TESTE_ACIONAMENTO2/Libraries/XMCLib/inc\xmc1_flash.h ****  * and verify the values against the internal buffer values. Calling XMC_FLASH_GetStatus() API afte
 212:C:/Workspaces/DAVE-4.4.2-64Bit/MK2_TESTE_ACIONAMENTO2/Libraries/XMCLib/inc\xmc1_flash.h ****  * validates the result of verification.
 213:C:/Workspaces/DAVE-4.4.2-64Bit/MK2_TESTE_ACIONAMENTO2/Libraries/XMCLib/inc\xmc1_flash.h ****  *
 214:C:/Workspaces/DAVE-4.4.2-64Bit/MK2_TESTE_ACIONAMENTO2/Libraries/XMCLib/inc\xmc1_flash.h ****  * \par<b>Related APIs:</b><BR>
 215:C:/Workspaces/DAVE-4.4.2-64Bit/MK2_TESTE_ACIONAMENTO2/Libraries/XMCLib/inc\xmc1_flash.h ****  * None 
 216:C:/Workspaces/DAVE-4.4.2-64Bit/MK2_TESTE_ACIONAMENTO2/Libraries/XMCLib/inc\xmc1_flash.h ****  * 
 217:C:/Workspaces/DAVE-4.4.2-64Bit/MK2_TESTE_ACIONAMENTO2/Libraries/XMCLib/inc\xmc1_flash.h ****  */
 218:C:/Workspaces/DAVE-4.4.2-64Bit/MK2_TESTE_ACIONAMENTO2/Libraries/XMCLib/inc\xmc1_flash.h **** void XMC_FLASH_VerifyBlocks(uint32_t *address, const uint32_t *data, uint32_t num_blocks);
 219:C:/Workspaces/DAVE-4.4.2-64Bit/MK2_TESTE_ACIONAMENTO2/Libraries/XMCLib/inc\xmc1_flash.h **** 
 220:C:/Workspaces/DAVE-4.4.2-64Bit/MK2_TESTE_ACIONAMENTO2/Libraries/XMCLib/inc\xmc1_flash.h **** 
 221:C:/Workspaces/DAVE-4.4.2-64Bit/MK2_TESTE_ACIONAMENTO2/Libraries/XMCLib/inc\xmc1_flash.h **** /**
 222:C:/Workspaces/DAVE-4.4.2-64Bit/MK2_TESTE_ACIONAMENTO2/Libraries/XMCLib/inc\xmc1_flash.h ****  *
 223:C:/Workspaces/DAVE-4.4.2-64Bit/MK2_TESTE_ACIONAMENTO2/Libraries/XMCLib/inc\xmc1_flash.h ****  * @param  address    Pointer to the starting address of flash block from where the read starts.
 224:C:/Workspaces/DAVE-4.4.2-64Bit/MK2_TESTE_ACIONAMENTO2/Libraries/XMCLib/inc\xmc1_flash.h ****  * @param  data       Pointer to the destination address, where the read data blocks to be stored.
 225:C:/Workspaces/DAVE-4.4.2-64Bit/MK2_TESTE_ACIONAMENTO2/Libraries/XMCLib/inc\xmc1_flash.h ****  * @param  num_blocks Number of blocks to be read.<BR> Range:  [1 to (flash size / 16)]
 226:C:/Workspaces/DAVE-4.4.2-64Bit/MK2_TESTE_ACIONAMENTO2/Libraries/XMCLib/inc\xmc1_flash.h ****  *
 227:C:/Workspaces/DAVE-4.4.2-64Bit/MK2_TESTE_ACIONAMENTO2/Libraries/XMCLib/inc\xmc1_flash.h ****  * @return None
 228:C:/Workspaces/DAVE-4.4.2-64Bit/MK2_TESTE_ACIONAMENTO2/Libraries/XMCLib/inc\xmc1_flash.h ****  *
 229:C:/Workspaces/DAVE-4.4.2-64Bit/MK2_TESTE_ACIONAMENTO2/Libraries/XMCLib/inc\xmc1_flash.h ****  * \par<b>Description:</b><br>
 230:C:/Workspaces/DAVE-4.4.2-64Bit/MK2_TESTE_ACIONAMENTO2/Libraries/XMCLib/inc\xmc1_flash.h ****  * Reads multiple blocks from flash in one shot, starting from the \a address specified.\n\n The re
 231:C:/Workspaces/DAVE-4.4.2-64Bit/MK2_TESTE_ACIONAMENTO2/Libraries/XMCLib/inc\xmc1_flash.h ****  * into the locations starting from the \a data address. Calling XMC_FLASH_GetStatus() API after ca
 232:C:/Workspaces/DAVE-4.4.2-64Bit/MK2_TESTE_ACIONAMENTO2/Libraries/XMCLib/inc\xmc1_flash.h ****  * verifies the read operation.
 233:C:/Workspaces/DAVE-4.4.2-64Bit/MK2_TESTE_ACIONAMENTO2/Libraries/XMCLib/inc\xmc1_flash.h ****  *
 234:C:/Workspaces/DAVE-4.4.2-64Bit/MK2_TESTE_ACIONAMENTO2/Libraries/XMCLib/inc\xmc1_flash.h ****  * \par<b>Related APIs:</b><BR>
 235:C:/Workspaces/DAVE-4.4.2-64Bit/MK2_TESTE_ACIONAMENTO2/Libraries/XMCLib/inc\xmc1_flash.h ****  * None 
 236:C:/Workspaces/DAVE-4.4.2-64Bit/MK2_TESTE_ACIONAMENTO2/Libraries/XMCLib/inc\xmc1_flash.h ****  * 
 237:C:/Workspaces/DAVE-4.4.2-64Bit/MK2_TESTE_ACIONAMENTO2/Libraries/XMCLib/inc\xmc1_flash.h ****  */
 238:C:/Workspaces/DAVE-4.4.2-64Bit/MK2_TESTE_ACIONAMENTO2/Libraries/XMCLib/inc\xmc1_flash.h **** void XMC_FLASH_ReadBlocks(uint32_t *address, uint32_t *data, uint32_t num_blocks);
 239:C:/Workspaces/DAVE-4.4.2-64Bit/MK2_TESTE_ACIONAMENTO2/Libraries/XMCLib/inc\xmc1_flash.h **** 
 240:C:/Workspaces/DAVE-4.4.2-64Bit/MK2_TESTE_ACIONAMENTO2/Libraries/XMCLib/inc\xmc1_flash.h **** 
 241:C:/Workspaces/DAVE-4.4.2-64Bit/MK2_TESTE_ACIONAMENTO2/Libraries/XMCLib/inc\xmc1_flash.h **** /**
 242:C:/Workspaces/DAVE-4.4.2-64Bit/MK2_TESTE_ACIONAMENTO2/Libraries/XMCLib/inc\xmc1_flash.h ****  *
 243:C:/Workspaces/DAVE-4.4.2-64Bit/MK2_TESTE_ACIONAMENTO2/Libraries/XMCLib/inc\xmc1_flash.h ****  * @param address Pointer to the flash word address from where the read is expected
 244:C:/Workspaces/DAVE-4.4.2-64Bit/MK2_TESTE_ACIONAMENTO2/Libraries/XMCLib/inc\xmc1_flash.h ****  *
 245:C:/Workspaces/DAVE-4.4.2-64Bit/MK2_TESTE_ACIONAMENTO2/Libraries/XMCLib/inc\xmc1_flash.h ****  * @return <BR>
 246:C:/Workspaces/DAVE-4.4.2-64Bit/MK2_TESTE_ACIONAMENTO2/Libraries/XMCLib/inc\xmc1_flash.h ****  *   a 32bit data word stored in the specified \a address.
 247:C:/Workspaces/DAVE-4.4.2-64Bit/MK2_TESTE_ACIONAMENTO2/Libraries/XMCLib/inc\xmc1_flash.h ****  *
 248:C:/Workspaces/DAVE-4.4.2-64Bit/MK2_TESTE_ACIONAMENTO2/Libraries/XMCLib/inc\xmc1_flash.h ****  * \par<b>Description:</b><br>
 249:C:/Workspaces/DAVE-4.4.2-64Bit/MK2_TESTE_ACIONAMENTO2/Libraries/XMCLib/inc\xmc1_flash.h ****  * Reads a single word from the specified flash\a address.\n\n Calling XMC_FLASH_GetStatus() API af
 250:C:/Workspaces/DAVE-4.4.2-64Bit/MK2_TESTE_ACIONAMENTO2/Libraries/XMCLib/inc\xmc1_flash.h ****  * API returns the read status.
 251:C:/Workspaces/DAVE-4.4.2-64Bit/MK2_TESTE_ACIONAMENTO2/Libraries/XMCLib/inc\xmc1_flash.h ****  *
 252:C:/Workspaces/DAVE-4.4.2-64Bit/MK2_TESTE_ACIONAMENTO2/Libraries/XMCLib/inc\xmc1_flash.h ****  * \par<b>Related APIs:</b><BR>
 253:C:/Workspaces/DAVE-4.4.2-64Bit/MK2_TESTE_ACIONAMENTO2/Libraries/XMCLib/inc\xmc1_flash.h ****  * XMC_FLASH_ReadBlocks() 
 254:C:/Workspaces/DAVE-4.4.2-64Bit/MK2_TESTE_ACIONAMENTO2/Libraries/XMCLib/inc\xmc1_flash.h ****  *
 255:C:/Workspaces/DAVE-4.4.2-64Bit/MK2_TESTE_ACIONAMENTO2/Libraries/XMCLib/inc\xmc1_flash.h ****  */
 256:C:/Workspaces/DAVE-4.4.2-64Bit/MK2_TESTE_ACIONAMENTO2/Libraries/XMCLib/inc\xmc1_flash.h **** __STATIC_INLINE uint32_t XMC_FLASH_ReadWord(const uint32_t *const address)
 257:C:/Workspaces/DAVE-4.4.2-64Bit/MK2_TESTE_ACIONAMENTO2/Libraries/XMCLib/inc\xmc1_flash.h **** {
  25              	 .loc 1 257 0
  26              	 .cfi_startproc
  27 0000 80B5     	 push {r7,lr}
  28              	.LCFI0:
  29              	 .cfi_def_cfa_offset 8
  30              	 .cfi_offset 7,-8
  31              	 .cfi_offset 14,-4
  32 0002 82B0     	 sub sp,sp,#8
  33              	.LCFI1:
  34              	 .cfi_def_cfa_offset 16
  35 0004 00AF     	 add r7,sp,#0
  36              	.LCFI2:
  37              	 .cfi_def_cfa_register 7
  38 0006 7860     	 str r0,[r7,#4]
 258:C:/Workspaces/DAVE-4.4.2-64Bit/MK2_TESTE_ACIONAMENTO2/Libraries/XMCLib/inc\xmc1_flash.h ****   return *address;
  39              	 .loc 1 258 0
  40 0008 7B68     	 ldr r3,[r7,#4]
  41 000a 1B68     	 ldr r3,[r3]
 259:C:/Workspaces/DAVE-4.4.2-64Bit/MK2_TESTE_ACIONAMENTO2/Libraries/XMCLib/inc\xmc1_flash.h **** }
  42              	 .loc 1 259 0
  43 000c 181C     	 mov r0,r3
  44 000e BD46     	 mov sp,r7
  45 0010 02B0     	 add sp,sp,#8
  46              	 
  47 0012 80BD     	 pop {r7,pc}
  48              	 .cfi_endproc
  49              	.LFE41:
  51              	 .section .text.XMC_FLASH_SetHardReadLevel,"ax",%progbits
  52              	 .align 2
  53              	 .code 16
  54              	 .thumb_func
  56              	XMC_FLASH_SetHardReadLevel:
  57              	.LFB46:
 260:C:/Workspaces/DAVE-4.4.2-64Bit/MK2_TESTE_ACIONAMENTO2/Libraries/XMCLib/inc\xmc1_flash.h **** 
 261:C:/Workspaces/DAVE-4.4.2-64Bit/MK2_TESTE_ACIONAMENTO2/Libraries/XMCLib/inc\xmc1_flash.h **** /**
 262:C:/Workspaces/DAVE-4.4.2-64Bit/MK2_TESTE_ACIONAMENTO2/Libraries/XMCLib/inc\xmc1_flash.h ****  *
 263:C:/Workspaces/DAVE-4.4.2-64Bit/MK2_TESTE_ACIONAMENTO2/Libraries/XMCLib/inc\xmc1_flash.h ****  * @param address Pointer to the starting address of the page to be erased
 264:C:/Workspaces/DAVE-4.4.2-64Bit/MK2_TESTE_ACIONAMENTO2/Libraries/XMCLib/inc\xmc1_flash.h ****  *
 265:C:/Workspaces/DAVE-4.4.2-64Bit/MK2_TESTE_ACIONAMENTO2/Libraries/XMCLib/inc\xmc1_flash.h ****  * @return None
 266:C:/Workspaces/DAVE-4.4.2-64Bit/MK2_TESTE_ACIONAMENTO2/Libraries/XMCLib/inc\xmc1_flash.h ****  *
 267:C:/Workspaces/DAVE-4.4.2-64Bit/MK2_TESTE_ACIONAMENTO2/Libraries/XMCLib/inc\xmc1_flash.h ****  * \par<b>Description:</b><br>
 268:C:/Workspaces/DAVE-4.4.2-64Bit/MK2_TESTE_ACIONAMENTO2/Libraries/XMCLib/inc\xmc1_flash.h ****  * Erases a single flash page associated to the specified \a address.\n\n XMC1000 Flash can be eras
 269:C:/Workspaces/DAVE-4.4.2-64Bit/MK2_TESTE_ACIONAMENTO2/Libraries/XMCLib/inc\xmc1_flash.h ****  * of one page = 16 blocks of 16 Bytes = 256 Bytes using this API. It internally calls the Flash Fi
 270:C:/Workspaces/DAVE-4.4.2-64Bit/MK2_TESTE_ACIONAMENTO2/Libraries/XMCLib/inc\xmc1_flash.h ****  * \a XMC1000_NvmErasePage(unsigned long pageAddr) to perform the erase operation. Refer XMC1000 re
 271:C:/Workspaces/DAVE-4.4.2-64Bit/MK2_TESTE_ACIONAMENTO2/Libraries/XMCLib/inc\xmc1_flash.h ****  * for more details on flash firmware routines (Section 25.3). Call XMC_FLASH_GetStatus() API after
 272:C:/Workspaces/DAVE-4.4.2-64Bit/MK2_TESTE_ACIONAMENTO2/Libraries/XMCLib/inc\xmc1_flash.h ****  * to verify the erase operation.\n
 273:C:/Workspaces/DAVE-4.4.2-64Bit/MK2_TESTE_ACIONAMENTO2/Libraries/XMCLib/inc\xmc1_flash.h ****  *
 274:C:/Workspaces/DAVE-4.4.2-64Bit/MK2_TESTE_ACIONAMENTO2/Libraries/XMCLib/inc\xmc1_flash.h ****  * \par<b>Related APIs:</b><BR>
 275:C:/Workspaces/DAVE-4.4.2-64Bit/MK2_TESTE_ACIONAMENTO2/Libraries/XMCLib/inc\xmc1_flash.h ****  * XMC_FLASH_ErasePages() \n\n\n
 276:C:/Workspaces/DAVE-4.4.2-64Bit/MK2_TESTE_ACIONAMENTO2/Libraries/XMCLib/inc\xmc1_flash.h ****  */
 277:C:/Workspaces/DAVE-4.4.2-64Bit/MK2_TESTE_ACIONAMENTO2/Libraries/XMCLib/inc\xmc1_flash.h **** void XMC_FLASH_ErasePage(uint32_t *address);
 278:C:/Workspaces/DAVE-4.4.2-64Bit/MK2_TESTE_ACIONAMENTO2/Libraries/XMCLib/inc\xmc1_flash.h **** 
 279:C:/Workspaces/DAVE-4.4.2-64Bit/MK2_TESTE_ACIONAMENTO2/Libraries/XMCLib/inc\xmc1_flash.h **** /**
 280:C:/Workspaces/DAVE-4.4.2-64Bit/MK2_TESTE_ACIONAMENTO2/Libraries/XMCLib/inc\xmc1_flash.h ****  *
 281:C:/Workspaces/DAVE-4.4.2-64Bit/MK2_TESTE_ACIONAMENTO2/Libraries/XMCLib/inc\xmc1_flash.h ****  * @param address    Pointer to the starting address of flash page from where the programming start
 282:C:/Workspaces/DAVE-4.4.2-64Bit/MK2_TESTE_ACIONAMENTO2/Libraries/XMCLib/inc\xmc1_flash.h ****  * @param data       Pointer to the source address where targeted data blocks are located.
 283:C:/Workspaces/DAVE-4.4.2-64Bit/MK2_TESTE_ACIONAMENTO2/Libraries/XMCLib/inc\xmc1_flash.h ****  *
 284:C:/Workspaces/DAVE-4.4.2-64Bit/MK2_TESTE_ACIONAMENTO2/Libraries/XMCLib/inc\xmc1_flash.h ****  * @return None
 285:C:/Workspaces/DAVE-4.4.2-64Bit/MK2_TESTE_ACIONAMENTO2/Libraries/XMCLib/inc\xmc1_flash.h ****  *
 286:C:/Workspaces/DAVE-4.4.2-64Bit/MK2_TESTE_ACIONAMENTO2/Libraries/XMCLib/inc\xmc1_flash.h ****  * \par<b>Description:</b><br>
 287:C:/Workspaces/DAVE-4.4.2-64Bit/MK2_TESTE_ACIONAMENTO2/Libraries/XMCLib/inc\xmc1_flash.h ****  * Erases, programs and verifies a single flash page starting from the \a address specified.\n\n XM
 288:C:/Workspaces/DAVE-4.4.2-64Bit/MK2_TESTE_ACIONAMENTO2/Libraries/XMCLib/inc\xmc1_flash.h ****  * programmed with granularity of one page = 16 blocks of 16 Bytes = 256 Bytes using this API. It i
 289:C:/Workspaces/DAVE-4.4.2-64Bit/MK2_TESTE_ACIONAMENTO2/Libraries/XMCLib/inc\xmc1_flash.h ****  * Flash Firmware routine \a XMC1000_NvmProgVerify(unsigned long pageAddr) to perform the programmi
 290:C:/Workspaces/DAVE-4.4.2-64Bit/MK2_TESTE_ACIONAMENTO2/Libraries/XMCLib/inc\xmc1_flash.h ****  * reference manual of for more details on flash firmware routines (Section 25.3). Call XMC_FLASH_G
 291:C:/Workspaces/DAVE-4.4.2-64Bit/MK2_TESTE_ACIONAMENTO2/Libraries/XMCLib/inc\xmc1_flash.h ****  * calling this API, to verify the erase operation.
 292:C:/Workspaces/DAVE-4.4.2-64Bit/MK2_TESTE_ACIONAMENTO2/Libraries/XMCLib/inc\xmc1_flash.h ****  *
 293:C:/Workspaces/DAVE-4.4.2-64Bit/MK2_TESTE_ACIONAMENTO2/Libraries/XMCLib/inc\xmc1_flash.h ****  * \par<b>Related APIs:</b><BR>
 294:C:/Workspaces/DAVE-4.4.2-64Bit/MK2_TESTE_ACIONAMENTO2/Libraries/XMCLib/inc\xmc1_flash.h ****  * None 
 295:C:/Workspaces/DAVE-4.4.2-64Bit/MK2_TESTE_ACIONAMENTO2/Libraries/XMCLib/inc\xmc1_flash.h ****  * 
 296:C:/Workspaces/DAVE-4.4.2-64Bit/MK2_TESTE_ACIONAMENTO2/Libraries/XMCLib/inc\xmc1_flash.h ****  */
 297:C:/Workspaces/DAVE-4.4.2-64Bit/MK2_TESTE_ACIONAMENTO2/Libraries/XMCLib/inc\xmc1_flash.h **** void XMC_FLASH_ProgramVerifyPage(uint32_t *address, const uint32_t *data);
 298:C:/Workspaces/DAVE-4.4.2-64Bit/MK2_TESTE_ACIONAMENTO2/Libraries/XMCLib/inc\xmc1_flash.h **** 
 299:C:/Workspaces/DAVE-4.4.2-64Bit/MK2_TESTE_ACIONAMENTO2/Libraries/XMCLib/inc\xmc1_flash.h **** /**
 300:C:/Workspaces/DAVE-4.4.2-64Bit/MK2_TESTE_ACIONAMENTO2/Libraries/XMCLib/inc\xmc1_flash.h ****  *
 301:C:/Workspaces/DAVE-4.4.2-64Bit/MK2_TESTE_ACIONAMENTO2/Libraries/XMCLib/inc\xmc1_flash.h ****  * @param None
 302:C:/Workspaces/DAVE-4.4.2-64Bit/MK2_TESTE_ACIONAMENTO2/Libraries/XMCLib/inc\xmc1_flash.h ****  *
 303:C:/Workspaces/DAVE-4.4.2-64Bit/MK2_TESTE_ACIONAMENTO2/Libraries/XMCLib/inc\xmc1_flash.h ****  * @return None
 304:C:/Workspaces/DAVE-4.4.2-64Bit/MK2_TESTE_ACIONAMENTO2/Libraries/XMCLib/inc\xmc1_flash.h ****  *
 305:C:/Workspaces/DAVE-4.4.2-64Bit/MK2_TESTE_ACIONAMENTO2/Libraries/XMCLib/inc\xmc1_flash.h ****  * \par<b>Description:</b><br>
 306:C:/Workspaces/DAVE-4.4.2-64Bit/MK2_TESTE_ACIONAMENTO2/Libraries/XMCLib/inc\xmc1_flash.h ****  * Enables the flash to enter into sleep mode by resetting the NVMCONF register NVM_ON bit.\n\n Fla
 307:C:/Workspaces/DAVE-4.4.2-64Bit/MK2_TESTE_ACIONAMENTO2/Libraries/XMCLib/inc\xmc1_flash.h ****  * sleep mode on any flash operation completion ready event trigger. To disable the sleep mode any 
 308:C:/Workspaces/DAVE-4.4.2-64Bit/MK2_TESTE_ACIONAMENTO2/Libraries/XMCLib/inc\xmc1_flash.h ****  * call the API XMC_FLASH_ExitSleepMode().\n
 309:C:/Workspaces/DAVE-4.4.2-64Bit/MK2_TESTE_ACIONAMENTO2/Libraries/XMCLib/inc\xmc1_flash.h ****  *
 310:C:/Workspaces/DAVE-4.4.2-64Bit/MK2_TESTE_ACIONAMENTO2/Libraries/XMCLib/inc\xmc1_flash.h ****  * \par<b>Related APIs:</b><BR>
 311:C:/Workspaces/DAVE-4.4.2-64Bit/MK2_TESTE_ACIONAMENTO2/Libraries/XMCLib/inc\xmc1_flash.h ****  * XMC_FLASH_ExitSleepMode()\n\n\n
 312:C:/Workspaces/DAVE-4.4.2-64Bit/MK2_TESTE_ACIONAMENTO2/Libraries/XMCLib/inc\xmc1_flash.h ****  *
 313:C:/Workspaces/DAVE-4.4.2-64Bit/MK2_TESTE_ACIONAMENTO2/Libraries/XMCLib/inc\xmc1_flash.h ****  */
 314:C:/Workspaces/DAVE-4.4.2-64Bit/MK2_TESTE_ACIONAMENTO2/Libraries/XMCLib/inc\xmc1_flash.h **** __STATIC_INLINE void XMC_FLASH_EnterSleepMode(void)
 315:C:/Workspaces/DAVE-4.4.2-64Bit/MK2_TESTE_ACIONAMENTO2/Libraries/XMCLib/inc\xmc1_flash.h **** {
 316:C:/Workspaces/DAVE-4.4.2-64Bit/MK2_TESTE_ACIONAMENTO2/Libraries/XMCLib/inc\xmc1_flash.h ****   NVM->NVMCONF &= (uint16_t)(~(uint32_t)NVM_NVMCONF_NVM_ON_Msk);
 317:C:/Workspaces/DAVE-4.4.2-64Bit/MK2_TESTE_ACIONAMENTO2/Libraries/XMCLib/inc\xmc1_flash.h **** }
 318:C:/Workspaces/DAVE-4.4.2-64Bit/MK2_TESTE_ACIONAMENTO2/Libraries/XMCLib/inc\xmc1_flash.h **** 
 319:C:/Workspaces/DAVE-4.4.2-64Bit/MK2_TESTE_ACIONAMENTO2/Libraries/XMCLib/inc\xmc1_flash.h **** /**
 320:C:/Workspaces/DAVE-4.4.2-64Bit/MK2_TESTE_ACIONAMENTO2/Libraries/XMCLib/inc\xmc1_flash.h ****  *
 321:C:/Workspaces/DAVE-4.4.2-64Bit/MK2_TESTE_ACIONAMENTO2/Libraries/XMCLib/inc\xmc1_flash.h ****  * @param None
 322:C:/Workspaces/DAVE-4.4.2-64Bit/MK2_TESTE_ACIONAMENTO2/Libraries/XMCLib/inc\xmc1_flash.h ****  *
 323:C:/Workspaces/DAVE-4.4.2-64Bit/MK2_TESTE_ACIONAMENTO2/Libraries/XMCLib/inc\xmc1_flash.h ****  * @return None
 324:C:/Workspaces/DAVE-4.4.2-64Bit/MK2_TESTE_ACIONAMENTO2/Libraries/XMCLib/inc\xmc1_flash.h ****  *
 325:C:/Workspaces/DAVE-4.4.2-64Bit/MK2_TESTE_ACIONAMENTO2/Libraries/XMCLib/inc\xmc1_flash.h ****  * \par<b>Description:</b><br>
 326:C:/Workspaces/DAVE-4.4.2-64Bit/MK2_TESTE_ACIONAMENTO2/Libraries/XMCLib/inc\xmc1_flash.h ****  * Enables the flash to exit from sleep mode by setting the NVMCONF register NVM_ON bit.\n\n Callin
 327:C:/Workspaces/DAVE-4.4.2-64Bit/MK2_TESTE_ACIONAMENTO2/Libraries/XMCLib/inc\xmc1_flash.h ****  * XMC_FLASH_EnterSleepMode() allows the flash to renter into sleep mode.\n
 328:C:/Workspaces/DAVE-4.4.2-64Bit/MK2_TESTE_ACIONAMENTO2/Libraries/XMCLib/inc\xmc1_flash.h ****  *
 329:C:/Workspaces/DAVE-4.4.2-64Bit/MK2_TESTE_ACIONAMENTO2/Libraries/XMCLib/inc\xmc1_flash.h ****  * \par<b>Related APIs:</b><BR>
 330:C:/Workspaces/DAVE-4.4.2-64Bit/MK2_TESTE_ACIONAMENTO2/Libraries/XMCLib/inc\xmc1_flash.h ****  * XMC_FLASH_EnterSleepMode()\n\n\n
 331:C:/Workspaces/DAVE-4.4.2-64Bit/MK2_TESTE_ACIONAMENTO2/Libraries/XMCLib/inc\xmc1_flash.h ****  *
 332:C:/Workspaces/DAVE-4.4.2-64Bit/MK2_TESTE_ACIONAMENTO2/Libraries/XMCLib/inc\xmc1_flash.h ****  */
 333:C:/Workspaces/DAVE-4.4.2-64Bit/MK2_TESTE_ACIONAMENTO2/Libraries/XMCLib/inc\xmc1_flash.h **** __STATIC_INLINE void XMC_FLASH_ExitSleepMode(void)
 334:C:/Workspaces/DAVE-4.4.2-64Bit/MK2_TESTE_ACIONAMENTO2/Libraries/XMCLib/inc\xmc1_flash.h **** {
 335:C:/Workspaces/DAVE-4.4.2-64Bit/MK2_TESTE_ACIONAMENTO2/Libraries/XMCLib/inc\xmc1_flash.h ****   NVM->NVMCONF |= (uint16_t)NVM_NVMCONF_NVM_ON_Msk;
 336:C:/Workspaces/DAVE-4.4.2-64Bit/MK2_TESTE_ACIONAMENTO2/Libraries/XMCLib/inc\xmc1_flash.h **** }
 337:C:/Workspaces/DAVE-4.4.2-64Bit/MK2_TESTE_ACIONAMENTO2/Libraries/XMCLib/inc\xmc1_flash.h **** 
 338:C:/Workspaces/DAVE-4.4.2-64Bit/MK2_TESTE_ACIONAMENTO2/Libraries/XMCLib/inc\xmc1_flash.h **** 
 339:C:/Workspaces/DAVE-4.4.2-64Bit/MK2_TESTE_ACIONAMENTO2/Libraries/XMCLib/inc\xmc1_flash.h **** /**
 340:C:/Workspaces/DAVE-4.4.2-64Bit/MK2_TESTE_ACIONAMENTO2/Libraries/XMCLib/inc\xmc1_flash.h ****  *
 341:C:/Workspaces/DAVE-4.4.2-64Bit/MK2_TESTE_ACIONAMENTO2/Libraries/XMCLib/inc\xmc1_flash.h ****  * @param sector Flash sector number for which the address extraction is needed<BR> Range:  [0 to 5
 342:C:/Workspaces/DAVE-4.4.2-64Bit/MK2_TESTE_ACIONAMENTO2/Libraries/XMCLib/inc\xmc1_flash.h ****  *
 343:C:/Workspaces/DAVE-4.4.2-64Bit/MK2_TESTE_ACIONAMENTO2/Libraries/XMCLib/inc\xmc1_flash.h ****  * @return uint32_t Starting address of the sector specified<BR> Range:  [0x10001000 to 0x10032000]
 344:C:/Workspaces/DAVE-4.4.2-64Bit/MK2_TESTE_ACIONAMENTO2/Libraries/XMCLib/inc\xmc1_flash.h ****  *
 345:C:/Workspaces/DAVE-4.4.2-64Bit/MK2_TESTE_ACIONAMENTO2/Libraries/XMCLib/inc\xmc1_flash.h ****  * \par<b>Description:</b><br>
 346:C:/Workspaces/DAVE-4.4.2-64Bit/MK2_TESTE_ACIONAMENTO2/Libraries/XMCLib/inc\xmc1_flash.h ****  * Finds the starting address of the specified \a sector number.\n\n
 347:C:/Workspaces/DAVE-4.4.2-64Bit/MK2_TESTE_ACIONAMENTO2/Libraries/XMCLib/inc\xmc1_flash.h ****  *
 348:C:/Workspaces/DAVE-4.4.2-64Bit/MK2_TESTE_ACIONAMENTO2/Libraries/XMCLib/inc\xmc1_flash.h ****  * \par<b>Related APIs:</b><BR>
 349:C:/Workspaces/DAVE-4.4.2-64Bit/MK2_TESTE_ACIONAMENTO2/Libraries/XMCLib/inc\xmc1_flash.h ****  * None 
 350:C:/Workspaces/DAVE-4.4.2-64Bit/MK2_TESTE_ACIONAMENTO2/Libraries/XMCLib/inc\xmc1_flash.h ****  *
 351:C:/Workspaces/DAVE-4.4.2-64Bit/MK2_TESTE_ACIONAMENTO2/Libraries/XMCLib/inc\xmc1_flash.h ****  */
 352:C:/Workspaces/DAVE-4.4.2-64Bit/MK2_TESTE_ACIONAMENTO2/Libraries/XMCLib/inc\xmc1_flash.h **** __STATIC_INLINE uint32_t XMC_FLASH_GetSectorAddress(uint32_t sector)
 353:C:/Workspaces/DAVE-4.4.2-64Bit/MK2_TESTE_ACIONAMENTO2/Libraries/XMCLib/inc\xmc1_flash.h **** {
 354:C:/Workspaces/DAVE-4.4.2-64Bit/MK2_TESTE_ACIONAMENTO2/Libraries/XMCLib/inc\xmc1_flash.h ****   return (XMC_FLASH_BASE + (XMC_FLASH_BYTES_PER_SECTOR * sector));
 355:C:/Workspaces/DAVE-4.4.2-64Bit/MK2_TESTE_ACIONAMENTO2/Libraries/XMCLib/inc\xmc1_flash.h **** }
 356:C:/Workspaces/DAVE-4.4.2-64Bit/MK2_TESTE_ACIONAMENTO2/Libraries/XMCLib/inc\xmc1_flash.h **** 
 357:C:/Workspaces/DAVE-4.4.2-64Bit/MK2_TESTE_ACIONAMENTO2/Libraries/XMCLib/inc\xmc1_flash.h **** 
 358:C:/Workspaces/DAVE-4.4.2-64Bit/MK2_TESTE_ACIONAMENTO2/Libraries/XMCLib/inc\xmc1_flash.h **** /**
 359:C:/Workspaces/DAVE-4.4.2-64Bit/MK2_TESTE_ACIONAMENTO2/Libraries/XMCLib/inc\xmc1_flash.h ****  * 
 360:C:/Workspaces/DAVE-4.4.2-64Bit/MK2_TESTE_ACIONAMENTO2/Libraries/XMCLib/inc\xmc1_flash.h ****  * @param num_sectors    Number of sectors to be protected<BR> Range:  [0 to 51]
 361:C:/Workspaces/DAVE-4.4.2-64Bit/MK2_TESTE_ACIONAMENTO2/Libraries/XMCLib/inc\xmc1_flash.h ****  *
 362:C:/Workspaces/DAVE-4.4.2-64Bit/MK2_TESTE_ACIONAMENTO2/Libraries/XMCLib/inc\xmc1_flash.h ****  * @return None
 363:C:/Workspaces/DAVE-4.4.2-64Bit/MK2_TESTE_ACIONAMENTO2/Libraries/XMCLib/inc\xmc1_flash.h ****  *
 364:C:/Workspaces/DAVE-4.4.2-64Bit/MK2_TESTE_ACIONAMENTO2/Libraries/XMCLib/inc\xmc1_flash.h ****  * \par<b>Description:</b><br>
 365:C:/Workspaces/DAVE-4.4.2-64Bit/MK2_TESTE_ACIONAMENTO2/Libraries/XMCLib/inc\xmc1_flash.h ****  * Protect the flash sectors starting from 0th sector to the specified \a num_sectors.\n\n It sets 
 366:C:/Workspaces/DAVE-4.4.2-64Bit/MK2_TESTE_ACIONAMENTO2/Libraries/XMCLib/inc\xmc1_flash.h ****  * SECPROT field with the value specified in \a num_sectors. Changing the protection limit can be a
 367:C:/Workspaces/DAVE-4.4.2-64Bit/MK2_TESTE_ACIONAMENTO2/Libraries/XMCLib/inc\xmc1_flash.h ****  * this API at runtime with a different value of \a num_sectors.\n\n
 368:C:/Workspaces/DAVE-4.4.2-64Bit/MK2_TESTE_ACIONAMENTO2/Libraries/XMCLib/inc\xmc1_flash.h ****  *
 369:C:/Workspaces/DAVE-4.4.2-64Bit/MK2_TESTE_ACIONAMENTO2/Libraries/XMCLib/inc\xmc1_flash.h ****  * \par<b>Related APIs:</b><BR>
 370:C:/Workspaces/DAVE-4.4.2-64Bit/MK2_TESTE_ACIONAMENTO2/Libraries/XMCLib/inc\xmc1_flash.h ****  * None 
 371:C:/Workspaces/DAVE-4.4.2-64Bit/MK2_TESTE_ACIONAMENTO2/Libraries/XMCLib/inc\xmc1_flash.h ****  *
 372:C:/Workspaces/DAVE-4.4.2-64Bit/MK2_TESTE_ACIONAMENTO2/Libraries/XMCLib/inc\xmc1_flash.h ****  */
 373:C:/Workspaces/DAVE-4.4.2-64Bit/MK2_TESTE_ACIONAMENTO2/Libraries/XMCLib/inc\xmc1_flash.h **** __STATIC_INLINE void XMC_FLASH_SetSectorProtection(uint32_t num_sectors)
 374:C:/Workspaces/DAVE-4.4.2-64Bit/MK2_TESTE_ACIONAMENTO2/Libraries/XMCLib/inc\xmc1_flash.h **** {
 375:C:/Workspaces/DAVE-4.4.2-64Bit/MK2_TESTE_ACIONAMENTO2/Libraries/XMCLib/inc\xmc1_flash.h ****   NVM->NVMCONF &= (~(uint16_t)NVM_NVMCONF_SECPROT_Msk);
 376:C:/Workspaces/DAVE-4.4.2-64Bit/MK2_TESTE_ACIONAMENTO2/Libraries/XMCLib/inc\xmc1_flash.h ****   NVM->NVMCONF |= (uint16_t)((uint16_t)num_sectors << NVM_NVMCONF_SECPROT_Pos);
 377:C:/Workspaces/DAVE-4.4.2-64Bit/MK2_TESTE_ACIONAMENTO2/Libraries/XMCLib/inc\xmc1_flash.h **** }
 378:C:/Workspaces/DAVE-4.4.2-64Bit/MK2_TESTE_ACIONAMENTO2/Libraries/XMCLib/inc\xmc1_flash.h **** 
 379:C:/Workspaces/DAVE-4.4.2-64Bit/MK2_TESTE_ACIONAMENTO2/Libraries/XMCLib/inc\xmc1_flash.h **** 
 380:C:/Workspaces/DAVE-4.4.2-64Bit/MK2_TESTE_ACIONAMENTO2/Libraries/XMCLib/inc\xmc1_flash.h **** /**
 381:C:/Workspaces/DAVE-4.4.2-64Bit/MK2_TESTE_ACIONAMENTO2/Libraries/XMCLib/inc\xmc1_flash.h ****  * 
 382:C:/Workspaces/DAVE-4.4.2-64Bit/MK2_TESTE_ACIONAMENTO2/Libraries/XMCLib/inc\xmc1_flash.h ****  * @param level Hard read levels specified in \a XMC_FLASH_HARDREAD_LEVEL_t.
 383:C:/Workspaces/DAVE-4.4.2-64Bit/MK2_TESTE_ACIONAMENTO2/Libraries/XMCLib/inc\xmc1_flash.h ****  *
 384:C:/Workspaces/DAVE-4.4.2-64Bit/MK2_TESTE_ACIONAMENTO2/Libraries/XMCLib/inc\xmc1_flash.h ****  * @return None
 385:C:/Workspaces/DAVE-4.4.2-64Bit/MK2_TESTE_ACIONAMENTO2/Libraries/XMCLib/inc\xmc1_flash.h ****  *
 386:C:/Workspaces/DAVE-4.4.2-64Bit/MK2_TESTE_ACIONAMENTO2/Libraries/XMCLib/inc\xmc1_flash.h ****  * \par<b>Description:</b><br>
 387:C:/Workspaces/DAVE-4.4.2-64Bit/MK2_TESTE_ACIONAMENTO2/Libraries/XMCLib/inc\xmc1_flash.h ****  * Sets the hard read level for verification process.\n\n It insists the flash to do a strict margi
 388:C:/Workspaces/DAVE-4.4.2-64Bit/MK2_TESTE_ACIONAMENTO2/Libraries/XMCLib/inc\xmc1_flash.h ****  * with the written/erased data against the internal buffer. Sets the NVMCONF register HRLEV field 
 389:C:/Workspaces/DAVE-4.4.2-64Bit/MK2_TESTE_ACIONAMENTO2/Libraries/XMCLib/inc\xmc1_flash.h ****  * value. This hardread level is used until the end of the verification sequence and, may not be ch
 390:C:/Workspaces/DAVE-4.4.2-64Bit/MK2_TESTE_ACIONAMENTO2/Libraries/XMCLib/inc\xmc1_flash.h ****  *
 391:C:/Workspaces/DAVE-4.4.2-64Bit/MK2_TESTE_ACIONAMENTO2/Libraries/XMCLib/inc\xmc1_flash.h ****  * \par<b>Related APIs:</b><BR>
 392:C:/Workspaces/DAVE-4.4.2-64Bit/MK2_TESTE_ACIONAMENTO2/Libraries/XMCLib/inc\xmc1_flash.h ****  * None 
 393:C:/Workspaces/DAVE-4.4.2-64Bit/MK2_TESTE_ACIONAMENTO2/Libraries/XMCLib/inc\xmc1_flash.h ****  *
 394:C:/Workspaces/DAVE-4.4.2-64Bit/MK2_TESTE_ACIONAMENTO2/Libraries/XMCLib/inc\xmc1_flash.h ****  */
 395:C:/Workspaces/DAVE-4.4.2-64Bit/MK2_TESTE_ACIONAMENTO2/Libraries/XMCLib/inc\xmc1_flash.h **** __STATIC_INLINE void XMC_FLASH_SetHardReadLevel(XMC_FLASH_HARDREAD_LEVEL_t level)
 396:C:/Workspaces/DAVE-4.4.2-64Bit/MK2_TESTE_ACIONAMENTO2/Libraries/XMCLib/inc\xmc1_flash.h **** {
  58              	 .loc 1 396 0
  59              	 .cfi_startproc
  60 0000 80B5     	 push {r7,lr}
  61              	.LCFI3:
  62              	 .cfi_def_cfa_offset 8
  63              	 .cfi_offset 7,-8
  64              	 .cfi_offset 14,-4
  65 0002 82B0     	 sub sp,sp,#8
  66              	.LCFI4:
  67              	 .cfi_def_cfa_offset 16
  68 0004 00AF     	 add r7,sp,#0
  69              	.LCFI5:
  70              	 .cfi_def_cfa_register 7
  71 0006 021C     	 mov r2,r0
  72 0008 FB1D     	 add r3,r7,#7
  73 000a 1A70     	 strb r2,[r3]
 397:C:/Workspaces/DAVE-4.4.2-64Bit/MK2_TESTE_ACIONAMENTO2/Libraries/XMCLib/inc\xmc1_flash.h ****   NVM->NVMCONF &= (uint16_t)(~(uint16_t)NVM_NVMCONF_HRLEV_Msk);
  74              	 .loc 1 397 0
  75 000c 0B4A     	 ldr r2,.L4
  76 000e 0B4B     	 ldr r3,.L4
  77 0010 1B89     	 ldrh r3,[r3,#8]
  78 0012 9BB2     	 uxth r3,r3
  79 0014 0621     	 mov r1,#6
  80 0016 8B43     	 bic r3,r1
  81 0018 9BB2     	 uxth r3,r3
  82 001a 1381     	 strh r3,[r2,#8]
 398:C:/Workspaces/DAVE-4.4.2-64Bit/MK2_TESTE_ACIONAMENTO2/Libraries/XMCLib/inc\xmc1_flash.h ****   NVM->NVMCONF |= (uint16_t)(level<< (uint16_t)NVM_NVMCONF_HRLEV_Pos);
  83              	 .loc 1 398 0
  84 001c 0749     	 ldr r1,.L4
  85 001e 074B     	 ldr r3,.L4
  86 0020 1B89     	 ldrh r3,[r3,#8]
  87 0022 9AB2     	 uxth r2,r3
  88 0024 FB1D     	 add r3,r7,#7
  89 0026 1B78     	 ldrb r3,[r3]
  90 0028 9BB2     	 uxth r3,r3
  91 002a DB18     	 add r3,r3,r3
  92 002c 9BB2     	 uxth r3,r3
  93 002e 1343     	 orr r3,r2
  94 0030 9BB2     	 uxth r3,r3
  95 0032 0B81     	 strh r3,[r1,#8]
 399:C:/Workspaces/DAVE-4.4.2-64Bit/MK2_TESTE_ACIONAMENTO2/Libraries/XMCLib/inc\xmc1_flash.h **** }
  96              	 .loc 1 399 0
  97 0034 BD46     	 mov sp,r7
  98 0036 02B0     	 add sp,sp,#8
  99              	 
 100 0038 80BD     	 pop {r7,pc}
 101              	.L5:
 102 003a C046     	 .align 2
 103              	.L4:
 104 003c 00000540 	 .word 1074069504
 105              	 .cfi_endproc
 106              	.LFE46:
 108              	 .section .text.E_EEPROM_XMC1_GetAppVersion,"ax",%progbits
 109              	 .align 2
 110              	 .global E_EEPROM_XMC1_GetAppVersion
 111              	 .code 16
 112              	 .thumb_func
 114              	E_EEPROM_XMC1_GetAppVersion:
 115              	.LFB48:
 116              	 .file 2 "../Dave/Generated/E_EEPROM_XMC1/e_eeprom_xmc1.c"
   1:../Dave/Generated/E_EEPROM_XMC1/e_eeprom_xmc1.c **** /**
   2:../Dave/Generated/E_EEPROM_XMC1/e_eeprom_xmc1.c ****  * @file e_eeprom_xmc1.c
   3:../Dave/Generated/E_EEPROM_XMC1/e_eeprom_xmc1.c ****  * @date 2016-09-23
   4:../Dave/Generated/E_EEPROM_XMC1/e_eeprom_xmc1.c ****  *
   5:../Dave/Generated/E_EEPROM_XMC1/e_eeprom_xmc1.c ****  * NOTE:
   6:../Dave/Generated/E_EEPROM_XMC1/e_eeprom_xmc1.c ****  * This file is generated by DAVE. Any manual modification done to this file will be lost when the 
   7:../Dave/Generated/E_EEPROM_XMC1/e_eeprom_xmc1.c ****  *
   8:../Dave/Generated/E_EEPROM_XMC1/e_eeprom_xmc1.c ****  * @cond
   9:../Dave/Generated/E_EEPROM_XMC1/e_eeprom_xmc1.c ****  **************************************************************************************************
  10:../Dave/Generated/E_EEPROM_XMC1/e_eeprom_xmc1.c ****  * E_EEPROM_XMC1 v4.1.10 - Emulates a portion of flash as an EEPROM for data storage.
  11:../Dave/Generated/E_EEPROM_XMC1/e_eeprom_xmc1.c ****  *
  12:../Dave/Generated/E_EEPROM_XMC1/e_eeprom_xmc1.c ****  * Copyright (c) 2015-2016, Infineon Technologies AG
  13:../Dave/Generated/E_EEPROM_XMC1/e_eeprom_xmc1.c ****  * All rights reserved.
  14:../Dave/Generated/E_EEPROM_XMC1/e_eeprom_xmc1.c ****  *
  15:../Dave/Generated/E_EEPROM_XMC1/e_eeprom_xmc1.c ****  * Redistribution and use in source and binary forms, with or without modification,are permitted pr
  16:../Dave/Generated/E_EEPROM_XMC1/e_eeprom_xmc1.c ****  * following conditions are met:
  17:../Dave/Generated/E_EEPROM_XMC1/e_eeprom_xmc1.c ****  *
  18:../Dave/Generated/E_EEPROM_XMC1/e_eeprom_xmc1.c ****  *   Redistributions of source code must retain the above copyright notice, this list of conditions
  19:../Dave/Generated/E_EEPROM_XMC1/e_eeprom_xmc1.c ****  *   disclaimer.
  20:../Dave/Generated/E_EEPROM_XMC1/e_eeprom_xmc1.c ****  *
  21:../Dave/Generated/E_EEPROM_XMC1/e_eeprom_xmc1.c ****  *   Redistributions in binary form must reproduce the above copyright notice, this list of conditi
  22:../Dave/Generated/E_EEPROM_XMC1/e_eeprom_xmc1.c ****  *   following disclaimer in the documentation and/or other materials provided with the distributio
  23:../Dave/Generated/E_EEPROM_XMC1/e_eeprom_xmc1.c ****  *
  24:../Dave/Generated/E_EEPROM_XMC1/e_eeprom_xmc1.c ****  *   Neither the name of the copyright holders nor the names of its contributors may be used to end
  25:../Dave/Generated/E_EEPROM_XMC1/e_eeprom_xmc1.c ****  *   products derived from this software without specific prior written permission.
  26:../Dave/Generated/E_EEPROM_XMC1/e_eeprom_xmc1.c ****  *
  27:../Dave/Generated/E_EEPROM_XMC1/e_eeprom_xmc1.c ****  * THIS SOFTWARE IS PROVIDED BY THE COPYRIGHT HOLDERS AND CONTRIBUTORS "AS IS" AND ANY EXPRESS OR I
  28:../Dave/Generated/E_EEPROM_XMC1/e_eeprom_xmc1.c ****  * INCLUDING, BUT NOT LIMITED TO, THE IMPLIED WARRANTIES OF MERCHANTABILITY AND FITNESS FOR A PARTI
  29:../Dave/Generated/E_EEPROM_XMC1/e_eeprom_xmc1.c ****  * DISCLAIMED. IN NO EVENT SHALL THE COPYRIGHT HOLDER OR CONTRIBUTORS BE LIABLE  FOR ANY DIRECT, IN
  30:../Dave/Generated/E_EEPROM_XMC1/e_eeprom_xmc1.c ****  * SPECIAL, EXEMPLARY, OR CONSEQUENTIAL DAMAGES (INCLUDING, BUT NOT LIMITED TO, PROCUREMENT OF SUBS
  31:../Dave/Generated/E_EEPROM_XMC1/e_eeprom_xmc1.c ****  * SERVICES; LOSS OF USE, DATA, OR PROFITS; OR BUSINESS INTERRUPTION) HOWEVER CAUSED AND ON ANY THE
  32:../Dave/Generated/E_EEPROM_XMC1/e_eeprom_xmc1.c ****  * WHETHER IN CONTRACT, STRICT LIABILITY,OR TORT (INCLUDING NEGLIGENCE OR OTHERWISE) ARISING IN ANY
  33:../Dave/Generated/E_EEPROM_XMC1/e_eeprom_xmc1.c ****  * USE OF THIS SOFTWARE, EVEN IF ADVISED OF THE POSSIBILITY OF SUCH DAMAGE.
  34:../Dave/Generated/E_EEPROM_XMC1/e_eeprom_xmc1.c ****  *
  35:../Dave/Generated/E_EEPROM_XMC1/e_eeprom_xmc1.c ****  * To improve the quality of the software, users are encouraged to share modifications, enhancement
  36:../Dave/Generated/E_EEPROM_XMC1/e_eeprom_xmc1.c ****  * with Infineon Technologies AG (dave@infineon.com).
  37:../Dave/Generated/E_EEPROM_XMC1/e_eeprom_xmc1.c ****  **************************************************************************************************
  38:../Dave/Generated/E_EEPROM_XMC1/e_eeprom_xmc1.c ****  *
  39:../Dave/Generated/E_EEPROM_XMC1/e_eeprom_xmc1.c ****  * Change History
  40:../Dave/Generated/E_EEPROM_XMC1/e_eeprom_xmc1.c ****  * --------------
  41:../Dave/Generated/E_EEPROM_XMC1/e_eeprom_xmc1.c ****  *
  42:../Dave/Generated/E_EEPROM_XMC1/e_eeprom_xmc1.c ****  * 2015-02-16:
  43:../Dave/Generated/E_EEPROM_XMC1/e_eeprom_xmc1.c ****  *     - Initial version<br>
  44:../Dave/Generated/E_EEPROM_XMC1/e_eeprom_xmc1.c ****  *
  45:../Dave/Generated/E_EEPROM_XMC1/e_eeprom_xmc1.c ****  * 2015-04-24:
  46:../Dave/Generated/E_EEPROM_XMC1/e_eeprom_xmc1.c ****  *     - E_EEPROM_XMC1_ReadBlockWithCRC API renamed to E_EEPROM_XMC1_VerifyBlockCrcStatus<br>
  47:../Dave/Generated/E_EEPROM_XMC1/e_eeprom_xmc1.c ****  *     - E_EEPROM_XMC1_OPERATION_STATUS_t enumeration parameter names changed and additional status
  48:../Dave/Generated/E_EEPROM_XMC1/e_eeprom_xmc1.c ****  *       E_EEPROM_XMC1_OPERATION_STATUS_NO_CRC_WRITTEN added.
  49:../Dave/Generated/E_EEPROM_XMC1/e_eeprom_xmc1.c ****  *
  50:../Dave/Generated/E_EEPROM_XMC1/e_eeprom_xmc1.c ****  * 2016-07-08:
  51:../Dave/Generated/E_EEPROM_XMC1/e_eeprom_xmc1.c ****  *     - Fixed incorrect case for an included header.<br>
  52:../Dave/Generated/E_EEPROM_XMC1/e_eeprom_xmc1.c ****  *
  53:../Dave/Generated/E_EEPROM_XMC1/e_eeprom_xmc1.c ****  * @endcond
  54:../Dave/Generated/E_EEPROM_XMC1/e_eeprom_xmc1.c ****  *
  55:../Dave/Generated/E_EEPROM_XMC1/e_eeprom_xmc1.c ****  */
  56:../Dave/Generated/E_EEPROM_XMC1/e_eeprom_xmc1.c **** 
  57:../Dave/Generated/E_EEPROM_XMC1/e_eeprom_xmc1.c **** /**************************************************************************************************
  58:../Dave/Generated/E_EEPROM_XMC1/e_eeprom_xmc1.c ****  * HEADER FILES
  59:../Dave/Generated/E_EEPROM_XMC1/e_eeprom_xmc1.c ****  **************************************************************************************************
  60:../Dave/Generated/E_EEPROM_XMC1/e_eeprom_xmc1.c **** 
  61:../Dave/Generated/E_EEPROM_XMC1/e_eeprom_xmc1.c **** #include "e_eeprom_xmc1.h"
  62:../Dave/Generated/E_EEPROM_XMC1/e_eeprom_xmc1.c **** 
  63:../Dave/Generated/E_EEPROM_XMC1/e_eeprom_xmc1.c **** /**************************************************************************************************
  64:../Dave/Generated/E_EEPROM_XMC1/e_eeprom_xmc1.c ****  * MACROS
  65:../Dave/Generated/E_EEPROM_XMC1/e_eeprom_xmc1.c ****  **************************************************************************************************
  66:../Dave/Generated/E_EEPROM_XMC1/e_eeprom_xmc1.c **** 
  67:../Dave/Generated/E_EEPROM_XMC1/e_eeprom_xmc1.c **** /* Define WEAK attribute */
  68:../Dave/Generated/E_EEPROM_XMC1/e_eeprom_xmc1.c **** #if !defined(__WEAK)
  69:../Dave/Generated/E_EEPROM_XMC1/e_eeprom_xmc1.c **** #if defined ( __CC_ARM )
  70:../Dave/Generated/E_EEPROM_XMC1/e_eeprom_xmc1.c **** #define __WEAK __attribute__ ((weak))
  71:../Dave/Generated/E_EEPROM_XMC1/e_eeprom_xmc1.c **** #elif defined ( __ICCARM__ )
  72:../Dave/Generated/E_EEPROM_XMC1/e_eeprom_xmc1.c **** #define __WEAK __weak
  73:../Dave/Generated/E_EEPROM_XMC1/e_eeprom_xmc1.c **** #elif defined ( __GNUC__ )
  74:../Dave/Generated/E_EEPROM_XMC1/e_eeprom_xmc1.c **** #define __WEAK __attribute__ ((weak))
  75:../Dave/Generated/E_EEPROM_XMC1/e_eeprom_xmc1.c **** #elif defined ( __TASKING__ )
  76:../Dave/Generated/E_EEPROM_XMC1/e_eeprom_xmc1.c **** #define __WEAK __attribute__ ((weak))
  77:../Dave/Generated/E_EEPROM_XMC1/e_eeprom_xmc1.c **** #endif
  78:../Dave/Generated/E_EEPROM_XMC1/e_eeprom_xmc1.c **** #endif
  79:../Dave/Generated/E_EEPROM_XMC1/e_eeprom_xmc1.c **** 
  80:../Dave/Generated/E_EEPROM_XMC1/e_eeprom_xmc1.c **** /* Garbage Collection procedure States */
  81:../Dave/Generated/E_EEPROM_XMC1/e_eeprom_xmc1.c **** #define E_EEPROM_XMC1_GC_UNINT             (0x0U)
  82:../Dave/Generated/E_EEPROM_XMC1/e_eeprom_xmc1.c **** #define E_EEPROM_XMC1_GC_COPY_START        (0x1U)
  83:../Dave/Generated/E_EEPROM_XMC1/e_eeprom_xmc1.c **** #define E_EEPROM_XMC1_GC_READ_NXTBLOCK     (0x2U)
  84:../Dave/Generated/E_EEPROM_XMC1/e_eeprom_xmc1.c **** #define E_EEPROM_XMC1_GC_ERASE_PREV_BANK   (0x3U)
  85:../Dave/Generated/E_EEPROM_XMC1/e_eeprom_xmc1.c **** #define E_EEPROM_XMC1_GC_REQUESTED         (0x4U)
  86:../Dave/Generated/E_EEPROM_XMC1/e_eeprom_xmc1.c **** #define E_EEPROM_XMC1_GC_COPY_WRITE        (0x5U)
  87:../Dave/Generated/E_EEPROM_XMC1/e_eeprom_xmc1.c **** #define E_EEPROM_XMC1_GC_COPY_END          (0x6U)
  88:../Dave/Generated/E_EEPROM_XMC1/e_eeprom_xmc1.c **** #define E_EEPROM_XMC1_GC_NEXT_BANK_VALID   (0x7U)
  89:../Dave/Generated/E_EEPROM_XMC1/e_eeprom_xmc1.c **** #define E_EEPROM_XMC1_GC_MARK_END_ERASE1   (0x8U)
  90:../Dave/Generated/E_EEPROM_XMC1/e_eeprom_xmc1.c **** #define E_EEPROM_XMC1_GC_FAIL              (0x9U)
  91:../Dave/Generated/E_EEPROM_XMC1/e_eeprom_xmc1.c **** #define E_EEPROM_XMC1_GC_IDLE              (0xAU)
  92:../Dave/Generated/E_EEPROM_XMC1/e_eeprom_xmc1.c **** 
  93:../Dave/Generated/E_EEPROM_XMC1/e_eeprom_xmc1.c **** /* Prepare DFLASH states states */
  94:../Dave/Generated/E_EEPROM_XMC1/e_eeprom_xmc1.c **** #define E_EEPROM_XMC1_PREPFLASH_FF         (0x1U)
  95:../Dave/Generated/E_EEPROM_XMC1/e_eeprom_xmc1.c **** #define E_EEPROM_XMC1_PREPFLASH_2F         (0x4U)
  96:../Dave/Generated/E_EEPROM_XMC1/e_eeprom_xmc1.c **** #define E_EEPROM_XMC1_PREPFLASH_2E         (0x5U)
  97:../Dave/Generated/E_EEPROM_XMC1/e_eeprom_xmc1.c **** 
  98:../Dave/Generated/E_EEPROM_XMC1/e_eeprom_xmc1.c **** 
  99:../Dave/Generated/E_EEPROM_XMC1/e_eeprom_xmc1.c **** /* Cache Update states */ 
 100:../Dave/Generated/E_EEPROM_XMC1/e_eeprom_xmc1.c **** #define E_EEPROM_XMC1_CACHE_IDLE           (0U)
 101:../Dave/Generated/E_EEPROM_XMC1/e_eeprom_xmc1.c **** #define E_EEPROM_XMC1_CACHE_EMPTY_BLOCK    (1U)
 102:../Dave/Generated/E_EEPROM_XMC1/e_eeprom_xmc1.c **** #define E_EEPROM_XMC1_CACHE_NEXT_BLK       (2U)
 103:../Dave/Generated/E_EEPROM_XMC1/e_eeprom_xmc1.c **** #define E_EEPROM_XMC1_CACHE_UPDATE_DONE    (4U)
 104:../Dave/Generated/E_EEPROM_XMC1/e_eeprom_xmc1.c **** 
 105:../Dave/Generated/E_EEPROM_XMC1/e_eeprom_xmc1.c **** /* Bank BLOCK values, used to store current status of the DFLASH */
 106:../Dave/Generated/E_EEPROM_XMC1/e_eeprom_xmc1.c **** #define E_EEPROM_XMC1_ALL_ONES             ((uint32_t)0xFFFFFFFFU)
 107:../Dave/Generated/E_EEPROM_XMC1/e_eeprom_xmc1.c **** #define E_EEPROM_XMC1_ALL_ZEROS            ((uint32_t)0x00000000U)
 108:../Dave/Generated/E_EEPROM_XMC1/e_eeprom_xmc1.c **** #define E_EEPROM_XMC1_START_BIT            (0x80U)
 109:../Dave/Generated/E_EEPROM_XMC1/e_eeprom_xmc1.c **** #define E_EEPROM_XMC1_VALID_BIT            (0x40U)
 110:../Dave/Generated/E_EEPROM_XMC1/e_eeprom_xmc1.c **** #define E_EEPROM_XMC1_CRC_BIT              (0x10U)
 111:../Dave/Generated/E_EEPROM_XMC1/e_eeprom_xmc1.c **** #define E_EEPROM_XMC1_VALID_MASK           ((uint32_t)(0x00004000U))
 112:../Dave/Generated/E_EEPROM_XMC1/e_eeprom_xmc1.c **** #define E_EEPROM_XMC1_CRC_MASK             ((uint32_t)(0x00001000U))
 113:../Dave/Generated/E_EEPROM_XMC1/e_eeprom_xmc1.c **** 
 114:../Dave/Generated/E_EEPROM_XMC1/e_eeprom_xmc1.c **** /* Internal Block status macros for implementation*/
 115:../Dave/Generated/E_EEPROM_XMC1/e_eeprom_xmc1.c **** #define E_EEPROM_XMC1_BLOCK1_DATA_SIZE     (12U)
 116:../Dave/Generated/E_EEPROM_XMC1/e_eeprom_xmc1.c **** #define E_EEPROM_XMC1_BLOCK2_DATA_SIZE     (14U)
 117:../Dave/Generated/E_EEPROM_XMC1/e_eeprom_xmc1.c **** #define E_EEPROM_XMC1_8BIT_ALL_ONE         (0xFFU)
 118:../Dave/Generated/E_EEPROM_XMC1/e_eeprom_xmc1.c **** #define E_EEPROM_XMC1_LOG_BLOCK_NOT_FOUND  ((uint32_t)(0xFFU))
 119:../Dave/Generated/E_EEPROM_XMC1/e_eeprom_xmc1.c **** #define E_EEPROM_XMC1_CRC_SHIFT            (16U)
 120:../Dave/Generated/E_EEPROM_XMC1/e_eeprom_xmc1.c **** #define E_EEPROM_XMC1_DUMMY_CRC            (0xA5A50000U)
 121:../Dave/Generated/E_EEPROM_XMC1/e_eeprom_xmc1.c **** #define E_EEPROM_XMC1_MASK_CRC             (0xFFFF0000U)
 122:../Dave/Generated/E_EEPROM_XMC1/e_eeprom_xmc1.c **** 
 123:../Dave/Generated/E_EEPROM_XMC1/e_eeprom_xmc1.c **** /* Bank BLOCK offsets */
 124:../Dave/Generated/E_EEPROM_XMC1/e_eeprom_xmc1.c **** #define E_EEPROM_XMC1_NEXT_VALID_OFFSET    (0U)
 125:../Dave/Generated/E_EEPROM_XMC1/e_eeprom_xmc1.c **** #define E_EEPROM_XMC1_BEGIN_OFFSET         (E_EEPROM_XMC1_FLASH_BLOCK_SIZE)
 126:../Dave/Generated/E_EEPROM_XMC1/e_eeprom_xmc1.c **** #define E_EEPROM_XMC1_END_OF_COPY_OFFSET   (E_EEPROM_XMC1_FLASH_BLOCK_SIZE * 2U)
 127:../Dave/Generated/E_EEPROM_XMC1/e_eeprom_xmc1.c **** #define E_EEPROM_XMC1_END_ERASE_OFFSET     (E_EEPROM_XMC1_FLASH_BLOCK_SIZE * 3U)
 128:../Dave/Generated/E_EEPROM_XMC1/e_eeprom_xmc1.c **** #define E_EEPROM_XMC1_DATA_BLOCK_OFFSET    (E_EEPROM_XMC1_FLASH_BLOCK_SIZE * 16U)
 129:../Dave/Generated/E_EEPROM_XMC1/e_eeprom_xmc1.c **** #define E_EEPROM_XMC1_BLOCK1_DATA_OFFSET   (4U)
 130:../Dave/Generated/E_EEPROM_XMC1/e_eeprom_xmc1.c **** #define E_EEPROM_XMC1_BLOCK2_DATA_OFFSET   (2U)
 131:../Dave/Generated/E_EEPROM_XMC1/e_eeprom_xmc1.c **** 
 132:../Dave/Generated/E_EEPROM_XMC1/e_eeprom_xmc1.c **** #define E_EEPROM_XMC1_BLOCK_WRITE_IDLE     (0U)
 133:../Dave/Generated/E_EEPROM_XMC1/e_eeprom_xmc1.c **** #define E_EEPROM_XMC1_FIRST_BLOCK_WRITE    (1U)
 134:../Dave/Generated/E_EEPROM_XMC1/e_eeprom_xmc1.c **** #define E_EEPROM_XMC1_NEXT_BLOCK_WRITE     (2U)
 135:../Dave/Generated/E_EEPROM_XMC1/e_eeprom_xmc1.c **** #define E_EEPROM_XMC1_LAST_BLOCK_WRITE     (3U)
 136:../Dave/Generated/E_EEPROM_XMC1/e_eeprom_xmc1.c **** 
 137:../Dave/Generated/E_EEPROM_XMC1/e_eeprom_xmc1.c **** /* States to monitor Garbage Collection completion, if it was interrupted earlier due to reset */
 138:../Dave/Generated/E_EEPROM_XMC1/e_eeprom_xmc1.c **** #define E_EEPROM_XMC1_INIT_NORMAL1         (0x2EU) /* Bank0 = VALID        BANK 1 = ERASED */
 139:../Dave/Generated/E_EEPROM_XMC1/e_eeprom_xmc1.c **** #define E_EEPROM_XMC1_INIT_DATA_COPY1      (0x2AU) /* Bank0 = VALID        BANK 1 = COPY ON-GOING *
 140:../Dave/Generated/E_EEPROM_XMC1/e_eeprom_xmc1.c **** #define E_EEPROM_XMC1_INIT_COPY_DONE2      (0x0AU) /* Bank0 = COPY COMPLETED  BANK 1 = COPY ON-GOIN
 141:../Dave/Generated/E_EEPROM_XMC1/e_eeprom_xmc1.c **** #define E_EEPROM_XMC1_INIT_NEXT_VALID2     (0x02U) /* Bank0 = COPY COMPLETED  BANK 1 = VALID */
 142:../Dave/Generated/E_EEPROM_XMC1/e_eeprom_xmc1.c **** #define E_EEPROM_XMC1_INIT_END_ERASE2      (0xF2U) /* Bank0 = ERASE ON-GOING  BANK 1 = VALID */
 143:../Dave/Generated/E_EEPROM_XMC1/e_eeprom_xmc1.c **** 
 144:../Dave/Generated/E_EEPROM_XMC1/e_eeprom_xmc1.c **** #define E_EEPROM_XMC1_INIT_NORMAL2         (0xE2U) /* Bank1 = VALID        BANK 0 = ERASED */
 145:../Dave/Generated/E_EEPROM_XMC1/e_eeprom_xmc1.c **** #define E_EEPROM_XMC1_INIT_DATA_COPY2      (0xA2U) /* Bank1 = VALID        BANK 0 = COPY ON-GOING *
 146:../Dave/Generated/E_EEPROM_XMC1/e_eeprom_xmc1.c **** #define E_EEPROM_XMC1_INIT_COPY_DONE1      (0xA0U) /* Bank1 = COPY COMPLETED  BANK 0 = COPY ON-GOIN
 147:../Dave/Generated/E_EEPROM_XMC1/e_eeprom_xmc1.c **** #define E_EEPROM_XMC1_INIT_NEXT_VALID1     (0x20U) /* Bank1 = COPY COMPLETED  BANK 0 = VALID */
 148:../Dave/Generated/E_EEPROM_XMC1/e_eeprom_xmc1.c **** #define E_EEPROM_XMC1_INIT_END_ERASE1      (0x2FU) /* Bank1 = ERASE ON-GOING  BANK 0 = VALID */
 149:../Dave/Generated/E_EEPROM_XMC1/e_eeprom_xmc1.c **** 
 150:../Dave/Generated/E_EEPROM_XMC1/e_eeprom_xmc1.c **** #define E_EEPROM_XMC1_INIT_ALL_ERASED      (0xFFU)
 151:../Dave/Generated/E_EEPROM_XMC1/e_eeprom_xmc1.c **** 
 152:../Dave/Generated/E_EEPROM_XMC1/e_eeprom_xmc1.c **** #define E_EEPROM_XMC1_INIT_STATE_2D        (0x2DU)
 153:../Dave/Generated/E_EEPROM_XMC1/e_eeprom_xmc1.c **** #define E_EEPROM_XMC1_INIT_STATE_D2        (0xD2U)
 154:../Dave/Generated/E_EEPROM_XMC1/e_eeprom_xmc1.c **** #define E_EEPROM_XMC1_INIT_STATE_AD        (0xADU)
 155:../Dave/Generated/E_EEPROM_XMC1/e_eeprom_xmc1.c **** #define E_EEPROM_XMC1_INIT_STATE_DA        (0xDAU)
 156:../Dave/Generated/E_EEPROM_XMC1/e_eeprom_xmc1.c **** #define E_EEPROM_XMC1_INIT_STATE_0D        (0x0DU)
 157:../Dave/Generated/E_EEPROM_XMC1/e_eeprom_xmc1.c **** #define E_EEPROM_XMC1_INIT_STATE_D0        (0xD0U)
 158:../Dave/Generated/E_EEPROM_XMC1/e_eeprom_xmc1.c **** #define E_EEPROM_XMC1_INIT_STATE_AF        (0xAFU)
 159:../Dave/Generated/E_EEPROM_XMC1/e_eeprom_xmc1.c **** #define E_EEPROM_XMC1_INIT_STATE_FA        (0xFAU)
 160:../Dave/Generated/E_EEPROM_XMC1/e_eeprom_xmc1.c **** #define E_EEPROM_XMC1_INIT_STATE_0F        (0x0FU)
 161:../Dave/Generated/E_EEPROM_XMC1/e_eeprom_xmc1.c **** #define E_EEPROM_XMC1_INIT_STATE_F0        (0xF0U)
 162:../Dave/Generated/E_EEPROM_XMC1/e_eeprom_xmc1.c **** 
 163:../Dave/Generated/E_EEPROM_XMC1/e_eeprom_xmc1.c **** #define E_EEPROM_XMC1_VALID_STATE          ((uint32_t)(0x20U))
 164:../Dave/Generated/E_EEPROM_XMC1/e_eeprom_xmc1.c **** #define E_EEPROM_XMC1_COPY_COMPLETED       ((uint32_t)(0x00U))
 165:../Dave/Generated/E_EEPROM_XMC1/e_eeprom_xmc1.c **** 
 166:../Dave/Generated/E_EEPROM_XMC1/e_eeprom_xmc1.c **** #define E_EEPROM_XMC1_MARKER_MAX_SHIFT     ((uint32_t)(4U))
 167:../Dave/Generated/E_EEPROM_XMC1/e_eeprom_xmc1.c **** #define E_EEPROM_XMC1_MAX_WORDS_IN_BLOCK   ((uint32_t)(4U))
 168:../Dave/Generated/E_EEPROM_XMC1/e_eeprom_xmc1.c **** #define E_EEPROM_XMC1_PAGE1_EXTRA_WORDS    ((uint8_t)(48U))
 169:../Dave/Generated/E_EEPROM_XMC1/e_eeprom_xmc1.c **** #define E_EEPROM_XMC1_MARKER_POSITION      ((uint32_t)0x80U)
 170:../Dave/Generated/E_EEPROM_XMC1/e_eeprom_xmc1.c **** 
 171:../Dave/Generated/E_EEPROM_XMC1/e_eeprom_xmc1.c **** /** Marker states on Init GC operation */
 172:../Dave/Generated/E_EEPROM_XMC1/e_eeprom_xmc1.c **** #define E_EEPROM_XMC1_MB_0                 ((uint32_t)0x00U)
 173:../Dave/Generated/E_EEPROM_XMC1/e_eeprom_xmc1.c **** #define E_EEPROM_XMC1_MB_1                 ((uint32_t)0x01U)
 174:../Dave/Generated/E_EEPROM_XMC1/e_eeprom_xmc1.c **** #define E_EEPROM_XMC1_MB_WRITTEN           ((uint32_t)0x00U)
 175:../Dave/Generated/E_EEPROM_XMC1/e_eeprom_xmc1.c **** #define E_EEPROM_XMC1_MB_ERASED            ((uint32_t)0x0FU)
 176:../Dave/Generated/E_EEPROM_XMC1/e_eeprom_xmc1.c **** #define E_EEPROM_XMC1_MB_DIRTY             ((uint32_t)0xDDU)
 177:../Dave/Generated/E_EEPROM_XMC1/e_eeprom_xmc1.c **** 
 178:../Dave/Generated/E_EEPROM_XMC1/e_eeprom_xmc1.c **** #define E_EEPROM_XMC1_BOTH_BANKS_VALID     ((uint32_t)0U) /* Both banks have clean markers */
 179:../Dave/Generated/E_EEPROM_XMC1/e_eeprom_xmc1.c **** #define E_EEPROM_XMC1_BANK0_INVALID        ((uint32_t)1U) /* Bank 0 is having dirty marker */
 180:../Dave/Generated/E_EEPROM_XMC1/e_eeprom_xmc1.c **** #define E_EEPROM_XMC1_BANK1_INVALID        ((uint32_t)2U) /* Bank 1 is having dirty marker */
 181:../Dave/Generated/E_EEPROM_XMC1/e_eeprom_xmc1.c **** #define E_EEPROM_XMC1_BOTH_BANKS_INVALID   ((uint32_t)3U) /* Both banks are having dirty markers */
 182:../Dave/Generated/E_EEPROM_XMC1/e_eeprom_xmc1.c **** 
 183:../Dave/Generated/E_EEPROM_XMC1/e_eeprom_xmc1.c **** #define E_EEPROM_XMC1_TWO_BYTES            ((uint32_t)0x02U)
 184:../Dave/Generated/E_EEPROM_XMC1/e_eeprom_xmc1.c **** #define E_EEPROM_XMC1_TWO_BIT_POS          ((uint32_t)0x02U)
 185:../Dave/Generated/E_EEPROM_XMC1/e_eeprom_xmc1.c **** #define E_EEPROM_XMC1_FOUR_BYTES           ((uint32_t)0x04U)
 186:../Dave/Generated/E_EEPROM_XMC1/e_eeprom_xmc1.c **** #define E_EEPROM_XMC1_EIGHT_BYTES          ((uint32_t)0x08U)
 187:../Dave/Generated/E_EEPROM_XMC1/e_eeprom_xmc1.c **** #define E_EEPROM_XMC1_EIGHT_BIT_POS        ((uint32_t)0x08U)
 188:../Dave/Generated/E_EEPROM_XMC1/e_eeprom_xmc1.c **** 
 189:../Dave/Generated/E_EEPROM_XMC1/e_eeprom_xmc1.c **** #define E_EEPROM_XMC1_EXECUTE_CACHE_UPDATE (0x0U)
 190:../Dave/Generated/E_EEPROM_XMC1/e_eeprom_xmc1.c **** #define E_EEPROM_XMC1_EXECUTE_PREP_FLASH   (0x1U)
 191:../Dave/Generated/E_EEPROM_XMC1/e_eeprom_xmc1.c **** #define E_EEPROM_XMC1_EXECUTE_GC_STATE     (0x2U)
 192:../Dave/Generated/E_EEPROM_XMC1/e_eeprom_xmc1.c **** 
 193:../Dave/Generated/E_EEPROM_XMC1/e_eeprom_xmc1.c **** /**************************************************************************************************
 194:../Dave/Generated/E_EEPROM_XMC1/e_eeprom_xmc1.c ****  * LOCAL DATA
 195:../Dave/Generated/E_EEPROM_XMC1/e_eeprom_xmc1.c ****  **************************************************************************************************
 196:../Dave/Generated/E_EEPROM_XMC1/e_eeprom_xmc1.c **** 
 197:../Dave/Generated/E_EEPROM_XMC1/e_eeprom_xmc1.c **** /**************************************************************************************************
 198:../Dave/Generated/E_EEPROM_XMC1/e_eeprom_xmc1.c ****  * LOCAL ROUTINES
 199:../Dave/Generated/E_EEPROM_XMC1/e_eeprom_xmc1.c ****  **************************************************************************************************
 200:../Dave/Generated/E_EEPROM_XMC1/e_eeprom_xmc1.c **** 
 201:../Dave/Generated/E_EEPROM_XMC1/e_eeprom_xmc1.c **** static void E_EEPROM_XMC1_lWriteSingleBlock(uint32_t const address, const uint32_t *const data);
 202:../Dave/Generated/E_EEPROM_XMC1/e_eeprom_xmc1.c **** static void E_EEPROM_XMC1_lReadSingleBlock(uint32_t const address, uint32_t *const data);
 203:../Dave/Generated/E_EEPROM_XMC1/e_eeprom_xmc1.c **** static void E_EEPROM_XMC1_lWriteSinglePage(uint32_t const address, const uint32_t *const data);
 204:../Dave/Generated/E_EEPROM_XMC1/e_eeprom_xmc1.c **** static void E_EEPROM_XMC1_lEraseSinglePage(uint32_t const address);
 205:../Dave/Generated/E_EEPROM_XMC1/e_eeprom_xmc1.c **** static uint32_t E_EEPROM_XMC1_lReadSingleWord(uint32_t const address);
 206:../Dave/Generated/E_EEPROM_XMC1/e_eeprom_xmc1.c **** static uint32_t E_EEPROM_XMC1_lGetFlashStatus(void);
 207:../Dave/Generated/E_EEPROM_XMC1/e_eeprom_xmc1.c **** 
 208:../Dave/Generated/E_EEPROM_XMC1/e_eeprom_xmc1.c **** static void E_EEPROM_XMC1_lInitDirtyStateMachine(void);
 209:../Dave/Generated/E_EEPROM_XMC1/e_eeprom_xmc1.c **** static void E_EEPROM_XMC1_lInitNormalStateMachine(void);
 210:../Dave/Generated/E_EEPROM_XMC1/e_eeprom_xmc1.c **** static void E_EEPROM_XMC1_lInitllegalStateMachine(void);
 211:../Dave/Generated/E_EEPROM_XMC1/e_eeprom_xmc1.c **** static uint32_t E_EEPROM_XMC1_lInitBank0NormalStateMachine(void);
 212:../Dave/Generated/E_EEPROM_XMC1/e_eeprom_xmc1.c **** static uint32_t E_EEPROM_XMC1_lInitBank1NormalStateMachine(void);
 213:../Dave/Generated/E_EEPROM_XMC1/e_eeprom_xmc1.c **** static uint32_t E_EEPROM_XMC1_lInitOtherNormalStateMachine(void);
 214:../Dave/Generated/E_EEPROM_XMC1/e_eeprom_xmc1.c **** static void E_EEPROM_XMC1_lInitGc(const uint32_t  marker_dirty_state);
 215:../Dave/Generated/E_EEPROM_XMC1/e_eeprom_xmc1.c **** static void E_EEPROM_XMC1_lInitGcNormalStates(uint32_t current_state, uint32_t next_process);
 216:../Dave/Generated/E_EEPROM_XMC1/e_eeprom_xmc1.c **** static void E_EEPROM_XMC1_lInitGcDataCopyState(uint32_t current_state, uint32_t marker_offset);
 217:../Dave/Generated/E_EEPROM_XMC1/e_eeprom_xmc1.c **** 
 218:../Dave/Generated/E_EEPROM_XMC1/e_eeprom_xmc1.c **** static void E_EEPROM_XMC1_lPrepareDFlash(void);
 219:../Dave/Generated/E_EEPROM_XMC1/e_eeprom_xmc1.c **** static void E_EEPROM_XMC1_lGarbageCollection(void);
 220:../Dave/Generated/E_EEPROM_XMC1/e_eeprom_xmc1.c **** static void E_EEPROM_XMC1_lSetMarkerBlockBuffer(void);
 221:../Dave/Generated/E_EEPROM_XMC1/e_eeprom_xmc1.c **** static void E_EEPROM_XMC1_lSetMarkerPageBuffer(uint32_t state);
 222:../Dave/Generated/E_EEPROM_XMC1/e_eeprom_xmc1.c **** static uint32_t E_EEPROM_XMC1_lReadVerifyMarker(uint32_t bank, uint32_t block);
 223:../Dave/Generated/E_EEPROM_XMC1/e_eeprom_xmc1.c **** static void E_EEPROM_XMC1_lErasedDirtyStateRecovery( uint32_t marker_offset);
 224:../Dave/Generated/E_EEPROM_XMC1/e_eeprom_xmc1.c **** static uint32_t E_EEPROM_XMC1_lReadMarkerBlocks(void);
 225:../Dave/Generated/E_EEPROM_XMC1/e_eeprom_xmc1.c **** static void E_EEPROM_XMC1_lCopyProcessDirtyStateRecovery(uint32_t current_state ,
 226:../Dave/Generated/E_EEPROM_XMC1/e_eeprom_xmc1.c ****                                                          uint32_t NextState,
 227:../Dave/Generated/E_EEPROM_XMC1/e_eeprom_xmc1.c ****                                                          uint32_t page_addr_select);
 228:../Dave/Generated/E_EEPROM_XMC1/e_eeprom_xmc1.c **** 
 229:../Dave/Generated/E_EEPROM_XMC1/e_eeprom_xmc1.c **** static void E_EEPROM_XMC1_lUpdateCache(void);
 230:../Dave/Generated/E_EEPROM_XMC1/e_eeprom_xmc1.c **** static void E_EEPROM_XMC1_lEvalBlockStatus(void);
 231:../Dave/Generated/E_EEPROM_XMC1/e_eeprom_xmc1.c **** static void E_EEPROM_XMC1_lUpdateCurrBankInfo(void);
 232:../Dave/Generated/E_EEPROM_XMC1/e_eeprom_xmc1.c **** static uint32_t E_EEPROM_XMC1_lUpdateCacheBlockRead(void);
 233:../Dave/Generated/E_EEPROM_XMC1/e_eeprom_xmc1.c **** static uint32_t E_EEPROM_XMC1_lCacheEmptyBlkEval(uint32_t end_addr);
 234:../Dave/Generated/E_EEPROM_XMC1/e_eeprom_xmc1.c **** 
 235:../Dave/Generated/E_EEPROM_XMC1/e_eeprom_xmc1.c **** static uint32_t E_EEPROM_XMC1_lGetFreeDFLASHBlocks(void);
 236:../Dave/Generated/E_EEPROM_XMC1/e_eeprom_xmc1.c **** static uint32_t E_EEPROM_XMC1_lGetUsrBlockIndex(uint8_t block_number);
 237:../Dave/Generated/E_EEPROM_XMC1/e_eeprom_xmc1.c **** static uint32_t E_EEPROM_XMC1_lGetDFLASHPhysicalBlocks(uint32_t size);
 238:../Dave/Generated/E_EEPROM_XMC1/e_eeprom_xmc1.c **** static uint32_t E_EEPROM_XMC1_lGCWrite(uint32_t block_address);
 239:../Dave/Generated/E_EEPROM_XMC1/e_eeprom_xmc1.c **** static uint32_t E_EEPROM_XMC1_lEraseBank(uint32_t page_address);
 240:../Dave/Generated/E_EEPROM_XMC1/e_eeprom_xmc1.c **** 
 241:../Dave/Generated/E_EEPROM_XMC1/e_eeprom_xmc1.c **** static void E_EEPROM_XMC1_lHandleGcStartCopy(void);
 242:../Dave/Generated/E_EEPROM_XMC1/e_eeprom_xmc1.c **** static void E_EEPROM_XMC1_lHandleGcRequested(void);
 243:../Dave/Generated/E_EEPROM_XMC1/e_eeprom_xmc1.c **** static void E_EEPROM_XMC1_lHandleGcEndOfCopy(void);
 244:../Dave/Generated/E_EEPROM_XMC1/e_eeprom_xmc1.c **** static void E_EEPROM_XMC1_lHandleGcCopyWrite(void);
 245:../Dave/Generated/E_EEPROM_XMC1/e_eeprom_xmc1.c **** static void E_EEPROM_XMC1_lHandleGcOtherStates( uint32_t current_state, uint32_t next_state);
 246:../Dave/Generated/E_EEPROM_XMC1/e_eeprom_xmc1.c **** static uint32_t E_EEPROM_XMC1_lWriteDataBlock(void);
 247:../Dave/Generated/E_EEPROM_XMC1/e_eeprom_xmc1.c **** static uint32_t E_EEPROM_XMC1_lHandleInvalidReq(uint8_t block_number, uint32_t user_block_index);
 248:../Dave/Generated/E_EEPROM_XMC1/e_eeprom_xmc1.c **** static uint32_t E_EEPROM_XMC1_lHandleWriteReq(uint8_t block_number, uint8_t* data_buffer_ptr);
 249:../Dave/Generated/E_EEPROM_XMC1/e_eeprom_xmc1.c **** static uint32_t E_EEPROM_XMC1_lLocalWrite(uint8_t block_number,
 250:../Dave/Generated/E_EEPROM_XMC1/e_eeprom_xmc1.c ****                                           uint8_t* data_buffer_ptr,
 251:../Dave/Generated/E_EEPROM_XMC1/e_eeprom_xmc1.c ****                                           uint32_t invalidate);
 252:../Dave/Generated/E_EEPROM_XMC1/e_eeprom_xmc1.c **** static void E_EEPROM_XMC1_lPopulateNextBlock(uint8_t block_number,
 253:../Dave/Generated/E_EEPROM_XMC1/e_eeprom_xmc1.c ****                                              uint8_t* const user_data_buffer_ptr ,
 254:../Dave/Generated/E_EEPROM_XMC1/e_eeprom_xmc1.c ****                                              uint32_t block_size);
 255:../Dave/Generated/E_EEPROM_XMC1/e_eeprom_xmc1.c **** static void E_EEPROM_XMC1_lPopulateFirstBlock(uint8_t block_number, uint8_t* user_data_buffer_ptr, 
 256:../Dave/Generated/E_EEPROM_XMC1/e_eeprom_xmc1.c **** #ifdef E_EEPROM_XMC1_CRC_SW_ENABLED
 257:../Dave/Generated/E_EEPROM_XMC1/e_eeprom_xmc1.c **** static E_EEPROM_XMC1_OPERATION_STATUS_t E_EEPROM_XMC1_lReadBlockCrcStatus(uint8_t block_number,
 258:../Dave/Generated/E_EEPROM_XMC1/e_eeprom_xmc1.c ****                                                                           uint8_t* data_buffer_ptr,
 259:../Dave/Generated/E_EEPROM_XMC1/e_eeprom_xmc1.c ****                                                                           uint32_t block_size);
 260:../Dave/Generated/E_EEPROM_XMC1/e_eeprom_xmc1.c **** #endif
 261:../Dave/Generated/E_EEPROM_XMC1/e_eeprom_xmc1.c **** static uint32_t E_EEPROM_XMC1_lReadBlockContents(uint8_t *data_buffer_ptr, uint32_t length, uint32_
 262:../Dave/Generated/E_EEPROM_XMC1/e_eeprom_xmc1.c **** static uint32_t E_EEPROM_XMC1_lGetPrevData(uint8_t block_number);
 263:../Dave/Generated/E_EEPROM_XMC1/e_eeprom_xmc1.c **** static uint32_t E_EEPROM_XMC1_lSearchBlockCopy(uint8_t required_block_number,
 264:../Dave/Generated/E_EEPROM_XMC1/e_eeprom_xmc1.c ****                                                uint32_t read_addr ,
 265:../Dave/Generated/E_EEPROM_XMC1/e_eeprom_xmc1.c ****                                                uint32_t data_sec_start_addr);
 266:../Dave/Generated/E_EEPROM_XMC1/e_eeprom_xmc1.c **** /*
 267:../Dave/Generated/E_EEPROM_XMC1/e_eeprom_xmc1.c ****  *  These are global functions used only for internal testing purpose.
 268:../Dave/Generated/E_EEPROM_XMC1/e_eeprom_xmc1.c ****  *  Application code shall not use these variables by enabling E_EEPROM_XMC1_TEST_HOOK_ENABLE macro
 269:../Dave/Generated/E_EEPROM_XMC1/e_eeprom_xmc1.c ****  */
 270:../Dave/Generated/E_EEPROM_XMC1/e_eeprom_xmc1.c **** #ifdef E_EEPROM_XMC1_TEST_HOOK_ENABLE
 271:../Dave/Generated/E_EEPROM_XMC1/e_eeprom_xmc1.c **** __WEAK void E_EEPROM_XMC1_TEST_HOOK_WriteSingleBlock(uint32_t const address, const uint32_t *const 
 272:../Dave/Generated/E_EEPROM_XMC1/e_eeprom_xmc1.c **** {
 273:../Dave/Generated/E_EEPROM_XMC1/e_eeprom_xmc1.c **** }
 274:../Dave/Generated/E_EEPROM_XMC1/e_eeprom_xmc1.c **** __WEAK void E_EEPROM_XMC1_TEST_HOOK_ReadSingleBlock(uint32_t const address, uint32_t *const data)
 275:../Dave/Generated/E_EEPROM_XMC1/e_eeprom_xmc1.c **** {
 276:../Dave/Generated/E_EEPROM_XMC1/e_eeprom_xmc1.c **** }
 277:../Dave/Generated/E_EEPROM_XMC1/e_eeprom_xmc1.c **** __WEAK void E_EEPROM_XMC1_TEST_HOOK_WriteSinglePage(uint32_t const address, const uint32_t *const d
 278:../Dave/Generated/E_EEPROM_XMC1/e_eeprom_xmc1.c **** {
 279:../Dave/Generated/E_EEPROM_XMC1/e_eeprom_xmc1.c **** }
 280:../Dave/Generated/E_EEPROM_XMC1/e_eeprom_xmc1.c **** __WEAK void E_EEPROM_XMC1_TEST_HOOK_EraseSinglePage(uint32_t const address)
 281:../Dave/Generated/E_EEPROM_XMC1/e_eeprom_xmc1.c **** {
 282:../Dave/Generated/E_EEPROM_XMC1/e_eeprom_xmc1.c **** }
 283:../Dave/Generated/E_EEPROM_XMC1/e_eeprom_xmc1.c **** __WEAK uint32_t E_EEPROM_XMC1_TEST_HOOK_ReadSingleWord(uint32_t const address)
 284:../Dave/Generated/E_EEPROM_XMC1/e_eeprom_xmc1.c **** {
 285:../Dave/Generated/E_EEPROM_XMC1/e_eeprom_xmc1.c **** return (0U);
 286:../Dave/Generated/E_EEPROM_XMC1/e_eeprom_xmc1.c **** }
 287:../Dave/Generated/E_EEPROM_XMC1/e_eeprom_xmc1.c **** __WEAK uint32_t E_EEPROM_XMC1_TEST_HOOK_GetFlashStatus(void)
 288:../Dave/Generated/E_EEPROM_XMC1/e_eeprom_xmc1.c **** {
 289:../Dave/Generated/E_EEPROM_XMC1/e_eeprom_xmc1.c **** return (0U);
 290:../Dave/Generated/E_EEPROM_XMC1/e_eeprom_xmc1.c **** }
 291:../Dave/Generated/E_EEPROM_XMC1/e_eeprom_xmc1.c **** #endif
 292:../Dave/Generated/E_EEPROM_XMC1/e_eeprom_xmc1.c **** 
 293:../Dave/Generated/E_EEPROM_XMC1/e_eeprom_xmc1.c **** /**************************************************************************************************
 294:../Dave/Generated/E_EEPROM_XMC1/e_eeprom_xmc1.c **** * API IMPLEMENTATION
 295:../Dave/Generated/E_EEPROM_XMC1/e_eeprom_xmc1.c **** ***************************************************************************************************
 296:../Dave/Generated/E_EEPROM_XMC1/e_eeprom_xmc1.c **** 
 297:../Dave/Generated/E_EEPROM_XMC1/e_eeprom_xmc1.c **** /*
 298:../Dave/Generated/E_EEPROM_XMC1/e_eeprom_xmc1.c ****  * Parameters(IN)  : void
 299:../Dave/Generated/E_EEPROM_XMC1/e_eeprom_xmc1.c ****  *
 300:../Dave/Generated/E_EEPROM_XMC1/e_eeprom_xmc1.c ****  * Return value   : DAVE_APP_VERSION_t
 301:../Dave/Generated/E_EEPROM_XMC1/e_eeprom_xmc1.c ****  *
 302:../Dave/Generated/E_EEPROM_XMC1/e_eeprom_xmc1.c ****  * Description    : Reads the APP implementation version.
 303:../Dave/Generated/E_EEPROM_XMC1/e_eeprom_xmc1.c ****  */
 304:../Dave/Generated/E_EEPROM_XMC1/e_eeprom_xmc1.c **** DAVE_APP_VERSION_t E_EEPROM_XMC1_GetAppVersion(void)
 305:../Dave/Generated/E_EEPROM_XMC1/e_eeprom_xmc1.c **** {
 117              	 .loc 2 305 0
 118              	 .cfi_startproc
 119 0000 80B5     	 push {r7,lr}
 120              	.LCFI6:
 121              	 .cfi_def_cfa_offset 8
 122              	 .cfi_offset 7,-8
 123              	 .cfi_offset 14,-4
 124 0002 82B0     	 sub sp,sp,#8
 125              	.LCFI7:
 126              	 .cfi_def_cfa_offset 16
 127 0004 00AF     	 add r7,sp,#0
 128              	.LCFI8:
 129              	 .cfi_def_cfa_register 7
 306:../Dave/Generated/E_EEPROM_XMC1/e_eeprom_xmc1.c ****   DAVE_APP_VERSION_t version;
 307:../Dave/Generated/E_EEPROM_XMC1/e_eeprom_xmc1.c **** 
 308:../Dave/Generated/E_EEPROM_XMC1/e_eeprom_xmc1.c ****   version.major = E_EEPROM_XMC1_MAJOR_VERSION;
 130              	 .loc 2 308 0
 131 0006 3B1C     	 mov r3,r7
 132 0008 0422     	 mov r2,#4
 133 000a 1A70     	 strb r2,[r3]
 309:../Dave/Generated/E_EEPROM_XMC1/e_eeprom_xmc1.c ****   version.minor = E_EEPROM_XMC1_MINOR_VERSION;
 134              	 .loc 2 309 0
 135 000c 3B1C     	 mov r3,r7
 136 000e 0122     	 mov r2,#1
 137 0010 5A70     	 strb r2,[r3,#1]
 310:../Dave/Generated/E_EEPROM_XMC1/e_eeprom_xmc1.c ****   version.patch = E_EEPROM_XMC1_PATCH_VERSION;
 138              	 .loc 2 310 0
 139 0012 3B1C     	 mov r3,r7
 140 0014 0A22     	 mov r2,#10
 141 0016 9A70     	 strb r2,[r3,#2]
 311:../Dave/Generated/E_EEPROM_XMC1/e_eeprom_xmc1.c **** 
 312:../Dave/Generated/E_EEPROM_XMC1/e_eeprom_xmc1.c ****   return version;
 142              	 .loc 2 312 0
 143 0018 3B1D     	 add r3,r7,#4
 144 001a 3A1C     	 mov r2,r7
 145 001c 1188     	 ldrh r1,[r2]
 146 001e 1980     	 strh r1,[r3]
 147 0020 9278     	 ldrb r2,[r2,#2]
 148 0022 9A70     	 strb r2,[r3,#2]
 149 0024 3A1D     	 add r2,r7,#4
 150 0026 0023     	 mov r3,#0
 151 0028 1178     	 ldrb r1,[r2]
 152 002a FF20     	 mov r0,#255
 153 002c 0140     	 and r1,r0
 154 002e FF20     	 mov r0,#255
 155 0030 8343     	 bic r3,r0
 156 0032 0B43     	 orr r3,r1
 157 0034 5178     	 ldrb r1,[r2,#1]
 158 0036 FF20     	 mov r0,#255
 159 0038 0140     	 and r1,r0
 160 003a 0902     	 lsl r1,r1,#8
 161 003c 0648     	 ldr r0,.L8
 162 003e 0340     	 and r3,r0
 163 0040 0B43     	 orr r3,r1
 164 0042 9278     	 ldrb r2,[r2,#2]
 165 0044 FF21     	 mov r1,#255
 166 0046 0A40     	 and r2,r1
 167 0048 1204     	 lsl r2,r2,#16
 168 004a 0449     	 ldr r1,.L8+4
 169 004c 0B40     	 and r3,r1
 170 004e 1343     	 orr r3,r2
 313:../Dave/Generated/E_EEPROM_XMC1/e_eeprom_xmc1.c **** }
 171              	 .loc 2 313 0
 172 0050 181C     	 mov r0,r3
 173 0052 BD46     	 mov sp,r7
 174 0054 02B0     	 add sp,sp,#8
 175              	 
 176 0056 80BD     	 pop {r7,pc}
 177              	.L9:
 178              	 .align 2
 179              	.L8:
 180 0058 FF00FFFF 	 .word -65281
 181 005c FFFF00FF 	 .word -16711681
 182              	 .cfi_endproc
 183              	.LFE48:
 185              	 .section .text.E_EEPROM_XMC1_Init,"ax",%progbits
 186              	 .align 2
 187              	 .global E_EEPROM_XMC1_Init
 188              	 .code 16
 189              	 .thumb_func
 191              	E_EEPROM_XMC1_Init:
 192              	.LFB49:
 314:../Dave/Generated/E_EEPROM_XMC1/e_eeprom_xmc1.c **** 
 315:../Dave/Generated/E_EEPROM_XMC1/e_eeprom_xmc1.c **** /*
 316:../Dave/Generated/E_EEPROM_XMC1/e_eeprom_xmc1.c ****  * Parameters(IN)  : handle_ptr
 317:../Dave/Generated/E_EEPROM_XMC1/e_eeprom_xmc1.c ****  * 
 318:../Dave/Generated/E_EEPROM_XMC1/e_eeprom_xmc1.c ****  * Return value    : E_EEPROM_XMC1_STATUS_t
 319:../Dave/Generated/E_EEPROM_XMC1/e_eeprom_xmc1.c ****  * 
 320:../Dave/Generated/E_EEPROM_XMC1/e_eeprom_xmc1.c ****  * Description     : Driver Module Initialization function. This service shall initialize the Flash
 321:../Dave/Generated/E_EEPROM_XMC1/e_eeprom_xmc1.c ****  *                   module using the values provided by configuration set.
 322:../Dave/Generated/E_EEPROM_XMC1/e_eeprom_xmc1.c ****  */
 323:../Dave/Generated/E_EEPROM_XMC1/e_eeprom_xmc1.c **** E_EEPROM_XMC1_STATUS_t E_EEPROM_XMC1_Init(E_EEPROM_XMC1_t *const handle_ptr)
 324:../Dave/Generated/E_EEPROM_XMC1/e_eeprom_xmc1.c **** {
 193              	 .loc 2 324 0
 194              	 .cfi_startproc
 195 0000 80B5     	 push {r7,lr}
 196              	.LCFI9:
 197              	 .cfi_def_cfa_offset 8
 198              	 .cfi_offset 7,-8
 199              	 .cfi_offset 14,-4
 200 0002 86B0     	 sub sp,sp,#24
 201              	.LCFI10:
 202              	 .cfi_def_cfa_offset 32
 203 0004 00AF     	 add r7,sp,#0
 204              	.LCFI11:
 205              	 .cfi_def_cfa_register 7
 206 0006 7860     	 str r0,[r7,#4]
 325:../Dave/Generated/E_EEPROM_XMC1/e_eeprom_xmc1.c ****   uint32_t indx;
 326:../Dave/Generated/E_EEPROM_XMC1/e_eeprom_xmc1.c ****   uint32_t marker_state;
 327:../Dave/Generated/E_EEPROM_XMC1/e_eeprom_xmc1.c **** 
 328:../Dave/Generated/E_EEPROM_XMC1/e_eeprom_xmc1.c ****   XMC_ASSERT("E_EEPROM_XMC1_Write:Invalid Buffer Pointer", (handle_ptr != NULL))
 329:../Dave/Generated/E_EEPROM_XMC1/e_eeprom_xmc1.c **** 
 330:../Dave/Generated/E_EEPROM_XMC1/e_eeprom_xmc1.c ****   /* Check if the E_EEPROM_XMC1_Init API is called once*/
 331:../Dave/Generated/E_EEPROM_XMC1/e_eeprom_xmc1.c ****   if (handle_ptr->state != E_EEPROM_XMC1_STATUS_SUCCESS)
 207              	 .loc 2 331 0
 208 0008 7B68     	 ldr r3,[r7,#4]
 209 000a 1B7A     	 ldrb r3,[r3,#8]
 210 000c 002B     	 cmp r3,#0
 211 000e 00D1     	 bne .LCB174
 212 0010 84E0     	 b .L11
 213              	.LCB174:
 332:../Dave/Generated/E_EEPROM_XMC1/e_eeprom_xmc1.c ****   {
 333:../Dave/Generated/E_EEPROM_XMC1/e_eeprom_xmc1.c ****     #ifdef E_EEPROM_XMC1_CRC_SW_ENABLED
 334:../Dave/Generated/E_EEPROM_XMC1/e_eeprom_xmc1.c ****     handle_ptr->state = (E_EEPROM_XMC1_STATUS_t)CRC_SW_Init(handle_ptr->crc_handle_ptr);
 335:../Dave/Generated/E_EEPROM_XMC1/e_eeprom_xmc1.c ****     if (handle_ptr->state != E_EEPROM_XMC1_STATUS_SUCCESS)
 336:../Dave/Generated/E_EEPROM_XMC1/e_eeprom_xmc1.c ****     {
 337:../Dave/Generated/E_EEPROM_XMC1/e_eeprom_xmc1.c ****       handle_ptr->state = E_EEPROM_XMC1_STATUS_FAILURE;
 338:../Dave/Generated/E_EEPROM_XMC1/e_eeprom_xmc1.c ****     }
 339:../Dave/Generated/E_EEPROM_XMC1/e_eeprom_xmc1.c ****     else
 340:../Dave/Generated/E_EEPROM_XMC1/e_eeprom_xmc1.c ****     #endif
 341:../Dave/Generated/E_EEPROM_XMC1/e_eeprom_xmc1.c ****     {
 342:../Dave/Generated/E_EEPROM_XMC1/e_eeprom_xmc1.c ****       /* Initialize the cache variables for the User defined Block configuration list */
 343:../Dave/Generated/E_EEPROM_XMC1/e_eeprom_xmc1.c ****       indx = 0U;
 214              	 .loc 2 343 0
 215 0012 0023     	 mov r3,#0
 216 0014 7B61     	 str r3,[r7,#20]
 217              	.L12:
 218              	.LBB2:
 344:../Dave/Generated/E_EEPROM_XMC1/e_eeprom_xmc1.c ****       do
 345:../Dave/Generated/E_EEPROM_XMC1/e_eeprom_xmc1.c ****       {
 346:../Dave/Generated/E_EEPROM_XMC1/e_eeprom_xmc1.c ****         E_EEPROM_XMC1_CACHE_t * block_ptr;
 347:../Dave/Generated/E_EEPROM_XMC1/e_eeprom_xmc1.c ****         block_ptr = &(handle_ptr->data_ptr->block_info[indx]);
 219              	 .loc 2 347 0 discriminator 1
 220 0016 7B68     	 ldr r3,[r7,#4]
 221 0018 5A68     	 ldr r2,[r3,#4]
 222 001a 7B69     	 ldr r3,[r7,#20]
 223 001c DB00     	 lsl r3,r3,#3
 224 001e D318     	 add r3,r2,r3
 225 0020 3B61     	 str r3,[r7,#16]
 348:../Dave/Generated/E_EEPROM_XMC1/e_eeprom_xmc1.c **** 
 349:../Dave/Generated/E_EEPROM_XMC1/e_eeprom_xmc1.c ****         block_ptr->address = 0U;
 226              	 .loc 2 349 0 discriminator 1
 227 0022 3B69     	 ldr r3,[r7,#16]
 228 0024 0022     	 mov r2,#0
 229 0026 1A60     	 str r2,[r3]
 350:../Dave/Generated/E_EEPROM_XMC1/e_eeprom_xmc1.c ****         block_ptr->status.consistent = 0U;
 230              	 .loc 2 350 0 discriminator 1
 231 0028 3B69     	 ldr r3,[r7,#16]
 232 002a 1A79     	 ldrb r2,[r3,#4]
 233 002c 0221     	 mov r1,#2
 234 002e 8A43     	 bic r2,r1
 235 0030 1A71     	 strb r2,[r3,#4]
 351:../Dave/Generated/E_EEPROM_XMC1/e_eeprom_xmc1.c ****         block_ptr->status.valid = 1U;
 236              	 .loc 2 351 0 discriminator 1
 237 0032 3B69     	 ldr r3,[r7,#16]
 238 0034 1A79     	 ldrb r2,[r3,#4]
 239 0036 0121     	 mov r1,#1
 240 0038 0A43     	 orr r2,r1
 241 003a 1A71     	 strb r2,[r3,#4]
 352:../Dave/Generated/E_EEPROM_XMC1/e_eeprom_xmc1.c ****         block_ptr->status.copied = 0U;
 242              	 .loc 2 352 0 discriminator 1
 243 003c 3B69     	 ldr r3,[r7,#16]
 244 003e 1A79     	 ldrb r2,[r3,#4]
 245 0040 0421     	 mov r1,#4
 246 0042 8A43     	 bic r2,r1
 247 0044 1A71     	 strb r2,[r3,#4]
 353:../Dave/Generated/E_EEPROM_XMC1/e_eeprom_xmc1.c ****         block_ptr->status.crc = 0U;
 248              	 .loc 2 353 0 discriminator 1
 249 0046 3B69     	 ldr r3,[r7,#16]
 250 0048 1A79     	 ldrb r2,[r3,#4]
 251 004a 0821     	 mov r1,#8
 252 004c 8A43     	 bic r2,r1
 253 004e 1A71     	 strb r2,[r3,#4]
 354:../Dave/Generated/E_EEPROM_XMC1/e_eeprom_xmc1.c ****         indx++;
 254              	 .loc 2 354 0 discriminator 1
 255 0050 7B69     	 ldr r3,[r7,#20]
 256 0052 0133     	 add r3,r3,#1
 257 0054 7B61     	 str r3,[r7,#20]
 258              	.LBE2:
 355:../Dave/Generated/E_EEPROM_XMC1/e_eeprom_xmc1.c ****       } while (indx < handle_ptr->block_count);
 259              	 .loc 2 355 0 discriminator 1
 260 0056 7B68     	 ldr r3,[r7,#4]
 261 0058 5B7A     	 ldrb r3,[r3,#9]
 262 005a 1A1E     	 sub r2,r3,#0
 263 005c 7B69     	 ldr r3,[r7,#20]
 264 005e 9A42     	 cmp r2,r3
 265 0060 D9D8     	 bhi .L12
 356:../Dave/Generated/E_EEPROM_XMC1/e_eeprom_xmc1.c **** 
 357:../Dave/Generated/E_EEPROM_XMC1/e_eeprom_xmc1.c ****       /********* Initialize all global variables *****************/
 358:../Dave/Generated/E_EEPROM_XMC1/e_eeprom_xmc1.c ****       handle_ptr->data_ptr->updated_cache_index = 0U;
 266              	 .loc 2 358 0
 267 0062 7B68     	 ldr r3,[r7,#4]
 268 0064 5A68     	 ldr r2,[r3,#4]
 269 0066 C223     	 mov r3,#194
 270 0068 5B00     	 lsl r3,r3,#1
 271 006a 0021     	 mov r1,#0
 272 006c D150     	 str r1,[r2,r3]
 359:../Dave/Generated/E_EEPROM_XMC1/e_eeprom_xmc1.c ****       handle_ptr->data_ptr->cache_state = E_EEPROM_XMC1_CACHE_IDLE;
 273              	 .loc 2 359 0
 274 006e 7B68     	 ldr r3,[r7,#4]
 275 0070 5A68     	 ldr r2,[r3,#4]
 276 0072 C023     	 mov r3,#192
 277 0074 5B00     	 lsl r3,r3,#1
 278 0076 0021     	 mov r1,#0
 279 0078 D150     	 str r1,[r2,r3]
 360:../Dave/Generated/E_EEPROM_XMC1/e_eeprom_xmc1.c ****       handle_ptr->data_ptr->gc_state = E_EEPROM_XMC1_GC_UNINT;
 280              	 .loc 2 360 0
 281 007a 7B68     	 ldr r3,[r7,#4]
 282 007c 5A68     	 ldr r2,[r3,#4]
 283 007e BA23     	 mov r3,#186
 284 0080 5B00     	 lsl r3,r3,#1
 285 0082 0021     	 mov r1,#0
 286 0084 D150     	 str r1,[r2,r3]
 361:../Dave/Generated/E_EEPROM_XMC1/e_eeprom_xmc1.c ****       handle_ptr->data_ptr->init_gc_state = 0U;
 287              	 .loc 2 361 0
 288 0086 7B68     	 ldr r3,[r7,#4]
 289 0088 5A68     	 ldr r2,[r3,#4]
 290 008a BC23     	 mov r3,#188
 291 008c 5B00     	 lsl r3,r3,#1
 292 008e 0021     	 mov r1,#0
 293 0090 D150     	 str r1,[r2,r3]
 362:../Dave/Generated/E_EEPROM_XMC1/e_eeprom_xmc1.c ****       handle_ptr->data_ptr->gc_log_block_count = 0U;
 294              	 .loc 2 362 0
 295 0092 7B68     	 ldr r3,[r7,#4]
 296 0094 5A68     	 ldr r2,[r3,#4]
 297 0096 BE23     	 mov r3,#190
 298 0098 5B00     	 lsl r3,r3,#1
 299 009a 0021     	 mov r1,#0
 300 009c D150     	 str r1,[r2,r3]
 363:../Dave/Generated/E_EEPROM_XMC1/e_eeprom_xmc1.c ****       handle_ptr->data_ptr->crc_buffer = 0U;
 301              	 .loc 2 363 0
 302 009e 7B68     	 ldr r3,[r7,#4]
 303 00a0 5B68     	 ldr r3,[r3,#4]
 304 00a2 0022     	 mov r2,#0
 305 00a4 DA66     	 str r2,[r3,#108]
 364:../Dave/Generated/E_EEPROM_XMC1/e_eeprom_xmc1.c **** 
 365:../Dave/Generated/E_EEPROM_XMC1/e_eeprom_xmc1.c ****       handle_ptr->data_ptr->written_block_counter = (uint32_t)0;
 306              	 .loc 2 365 0
 307 00a6 7B68     	 ldr r3,[r7,#4]
 308 00a8 5B68     	 ldr r3,[r3,#4]
 309 00aa 0022     	 mov r2,#0
 310 00ac 9A65     	 str r2,[r3,#88]
 366:../Dave/Generated/E_EEPROM_XMC1/e_eeprom_xmc1.c ****       handle_ptr->data_ptr->curr_bank_src_addr = 0U;
 311              	 .loc 2 366 0
 312 00ae 7B68     	 ldr r3,[r7,#4]
 313 00b0 5B68     	 ldr r3,[r3,#4]
 314 00b2 0022     	 mov r2,#0
 315 00b4 1A65     	 str r2,[r3,#80]
 367:../Dave/Generated/E_EEPROM_XMC1/e_eeprom_xmc1.c ****       handle_ptr->data_ptr->gc_src_addr = 0U;
 316              	 .loc 2 367 0
 317 00b6 7B68     	 ldr r3,[r7,#4]
 318 00b8 5B68     	 ldr r3,[r3,#4]
 319 00ba 0022     	 mov r2,#0
 320 00bc 1A64     	 str r2,[r3,#64]
 368:../Dave/Generated/E_EEPROM_XMC1/e_eeprom_xmc1.c ****       handle_ptr->data_ptr->gc_dest_addr = 0U;
 321              	 .loc 2 368 0
 322 00be 7B68     	 ldr r3,[r7,#4]
 323 00c0 5B68     	 ldr r3,[r3,#4]
 324 00c2 0022     	 mov r2,#0
 325 00c4 DA63     	 str r2,[r3,#60]
 369:../Dave/Generated/E_EEPROM_XMC1/e_eeprom_xmc1.c ****       handle_ptr->data_ptr->next_free_block_addr = 0U;
 326              	 .loc 2 369 0
 327 00c6 7B68     	 ldr r3,[r7,#4]
 328 00c8 5B68     	 ldr r3,[r3,#4]
 329 00ca 0022     	 mov r2,#0
 330 00cc DA64     	 str r2,[r3,#76]
 370:../Dave/Generated/E_EEPROM_XMC1/e_eeprom_xmc1.c ****       handle_ptr->data_ptr->gc_block_counter = (uint32_t)0;
 331              	 .loc 2 370 0
 332 00ce 7B68     	 ldr r3,[r7,#4]
 333 00d0 5B68     	 ldr r3,[r3,#4]
 334 00d2 0022     	 mov r2,#0
 335 00d4 5A65     	 str r2,[r3,#84]
 371:../Dave/Generated/E_EEPROM_XMC1/e_eeprom_xmc1.c ****       handle_ptr->data_ptr->user_write_bytes_count = 0U;
 336              	 .loc 2 371 0
 337 00d6 7B68     	 ldr r3,[r7,#4]
 338 00d8 5A68     	 ldr r2,[r3,#4]
 339 00da B823     	 mov r3,#184
 340 00dc 5B00     	 lsl r3,r3,#1
 341 00de 0021     	 mov r1,#0
 342 00e0 D150     	 str r1,[r2,r3]
 372:../Dave/Generated/E_EEPROM_XMC1/e_eeprom_xmc1.c **** 
 373:../Dave/Generated/E_EEPROM_XMC1/e_eeprom_xmc1.c ****       handle_ptr->data_ptr->current_bank = 0U;
 343              	 .loc 2 373 0
 344 00e2 7B68     	 ldr r3,[r7,#4]
 345 00e4 5B68     	 ldr r3,[r3,#4]
 346 00e6 0022     	 mov r2,#0
 347 00e8 9A63     	 str r2,[r3,#56]
 374:../Dave/Generated/E_EEPROM_XMC1/e_eeprom_xmc1.c **** 
 375:../Dave/Generated/E_EEPROM_XMC1/e_eeprom_xmc1.c ****       XMC_FLASH_SetHardReadLevel(XMC_FLASH_HARDREAD_LEVEL_WRITTEN);
 348              	 .loc 2 375 0
 349 00ea 0120     	 mov r0,#1
 350 00ec FFF7FEFF 	 bl XMC_FLASH_SetHardReadLevel
 376:../Dave/Generated/E_EEPROM_XMC1/e_eeprom_xmc1.c **** 
 377:../Dave/Generated/E_EEPROM_XMC1/e_eeprom_xmc1.c ****       /* Read the marker blocks from flash and decide the MARKER STATES */
 378:../Dave/Generated/E_EEPROM_XMC1/e_eeprom_xmc1.c ****       marker_state = E_EEPROM_XMC1_lReadMarkerBlocks();
 351              	 .loc 2 378 0
 352 00f0 FFF7FEFF 	 bl E_EEPROM_XMC1_lReadMarkerBlocks
 353 00f4 031C     	 mov r3,r0
 354 00f6 FB60     	 str r3,[r7,#12]
 379:../Dave/Generated/E_EEPROM_XMC1/e_eeprom_xmc1.c **** 
 380:../Dave/Generated/E_EEPROM_XMC1/e_eeprom_xmc1.c **** 
 381:../Dave/Generated/E_EEPROM_XMC1/e_eeprom_xmc1.c ****       /*
 382:../Dave/Generated/E_EEPROM_XMC1/e_eeprom_xmc1.c ****        * Call INIT-GC state machine function to take decision on current MARKER STATE available.
 383:../Dave/Generated/E_EEPROM_XMC1/e_eeprom_xmc1.c ****        * Progress to GC state machine or PrepareDFLASH State machine after completing  the Cache up
 384:../Dave/Generated/E_EEPROM_XMC1/e_eeprom_xmc1.c ****        */
 385:../Dave/Generated/E_EEPROM_XMC1/e_eeprom_xmc1.c ****       E_EEPROM_XMC1_lInitGc(marker_state);
 355              	 .loc 2 385 0
 356 00f8 FB68     	 ldr r3,[r7,#12]
 357 00fa 181C     	 mov r0,r3
 358 00fc FFF7FEFF 	 bl E_EEPROM_XMC1_lInitGc
 386:../Dave/Generated/E_EEPROM_XMC1/e_eeprom_xmc1.c **** 
 387:../Dave/Generated/E_EEPROM_XMC1/e_eeprom_xmc1.c ****       /* If Initialization is done without any errors, set the INIT API called state into Initializ
 388:../Dave/Generated/E_EEPROM_XMC1/e_eeprom_xmc1.c ****       if (handle_ptr->data_ptr->gc_state == E_EEPROM_XMC1_GC_IDLE)
 359              	 .loc 2 388 0
 360 0100 7B68     	 ldr r3,[r7,#4]
 361 0102 5A68     	 ldr r2,[r3,#4]
 362 0104 BA23     	 mov r3,#186
 363 0106 5B00     	 lsl r3,r3,#1
 364 0108 D358     	 ldr r3,[r2,r3]
 365 010a 0A2B     	 cmp r3,#10
 366 010c 03D1     	 bne .L13
 389:../Dave/Generated/E_EEPROM_XMC1/e_eeprom_xmc1.c ****       {
 390:../Dave/Generated/E_EEPROM_XMC1/e_eeprom_xmc1.c ****         handle_ptr->state = E_EEPROM_XMC1_STATUS_SUCCESS;
 367              	 .loc 2 390 0
 368 010e 7B68     	 ldr r3,[r7,#4]
 369 0110 0022     	 mov r2,#0
 370 0112 1A72     	 strb r2,[r3,#8]
 371 0114 02E0     	 b .L11
 372              	.L13:
 391:../Dave/Generated/E_EEPROM_XMC1/e_eeprom_xmc1.c ****       }
 392:../Dave/Generated/E_EEPROM_XMC1/e_eeprom_xmc1.c ****       else
 393:../Dave/Generated/E_EEPROM_XMC1/e_eeprom_xmc1.c ****       {
 394:../Dave/Generated/E_EEPROM_XMC1/e_eeprom_xmc1.c ****         handle_ptr->state = E_EEPROM_XMC1_STATUS_FAILURE;
 373              	 .loc 2 394 0
 374 0116 7B68     	 ldr r3,[r7,#4]
 375 0118 0122     	 mov r2,#1
 376 011a 1A72     	 strb r2,[r3,#8]
 377              	.L11:
 395:../Dave/Generated/E_EEPROM_XMC1/e_eeprom_xmc1.c ****       }
 396:../Dave/Generated/E_EEPROM_XMC1/e_eeprom_xmc1.c ****     }
 397:../Dave/Generated/E_EEPROM_XMC1/e_eeprom_xmc1.c ****   }
 398:../Dave/Generated/E_EEPROM_XMC1/e_eeprom_xmc1.c ****   return (handle_ptr->state);
 378              	 .loc 2 398 0
 379 011c 7B68     	 ldr r3,[r7,#4]
 380 011e 1B7A     	 ldrb r3,[r3,#8]
 399:../Dave/Generated/E_EEPROM_XMC1/e_eeprom_xmc1.c **** }
 381              	 .loc 2 399 0
 382 0120 181C     	 mov r0,r3
 383 0122 BD46     	 mov sp,r7
 384 0124 06B0     	 add sp,sp,#24
 385              	 
 386 0126 80BD     	 pop {r7,pc}
 387              	 .cfi_endproc
 388              	.LFE49:
 390              	 .section .text.E_EEPROM_XMC1_Write,"ax",%progbits
 391              	 .align 2
 392              	 .global E_EEPROM_XMC1_Write
 393              	 .code 16
 394              	 .thumb_func
 396              	E_EEPROM_XMC1_Write:
 397              	.LFB50:
 400:../Dave/Generated/E_EEPROM_XMC1/e_eeprom_xmc1.c **** 
 401:../Dave/Generated/E_EEPROM_XMC1/e_eeprom_xmc1.c **** /*
 402:../Dave/Generated/E_EEPROM_XMC1/e_eeprom_xmc1.c ****  * Parameters(IN)  : block_number  - Number of logical block (Block-ID)
 403:../Dave/Generated/E_EEPROM_XMC1/e_eeprom_xmc1.c ****  *             data_buffer_ptr - Pointer to user data buffer
 404:../Dave/Generated/E_EEPROM_XMC1/e_eeprom_xmc1.c ****  *
 405:../Dave/Generated/E_EEPROM_XMC1/e_eeprom_xmc1.c ****  * Return value   : E_EEPROM_XMC1_OPERATION_STATUS_t
 406:../Dave/Generated/E_EEPROM_XMC1/e_eeprom_xmc1.c ****  * 
 407:../Dave/Generated/E_EEPROM_XMC1/e_eeprom_xmc1.c ****  * Description    : This function shall write user data block into flash.
 408:../Dave/Generated/E_EEPROM_XMC1/e_eeprom_xmc1.c ****  */
 409:../Dave/Generated/E_EEPROM_XMC1/e_eeprom_xmc1.c **** E_EEPROM_XMC1_OPERATION_STATUS_t E_EEPROM_XMC1_Write(uint8_t block_number, uint8_t *data_buffer_ptr
 410:../Dave/Generated/E_EEPROM_XMC1/e_eeprom_xmc1.c **** {
 398              	 .loc 2 410 0
 399              	 .cfi_startproc
 400 0000 80B5     	 push {r7,lr}
 401              	.LCFI12:
 402              	 .cfi_def_cfa_offset 8
 403              	 .cfi_offset 7,-8
 404              	 .cfi_offset 14,-4
 405 0002 84B0     	 sub sp,sp,#16
 406              	.LCFI13:
 407              	 .cfi_def_cfa_offset 24
 408 0004 00AF     	 add r7,sp,#0
 409              	.LCFI14:
 410              	 .cfi_def_cfa_register 7
 411 0006 021C     	 mov r2,r0
 412 0008 3960     	 str r1,[r7]
 413 000a FB1D     	 add r3,r7,#7
 414 000c 1A70     	 strb r2,[r3]
 411:../Dave/Generated/E_EEPROM_XMC1/e_eeprom_xmc1.c ****   E_EEPROM_XMC1_OPERATION_STATUS_t status;
 412:../Dave/Generated/E_EEPROM_XMC1/e_eeprom_xmc1.c ****   E_EEPROM_XMC1_DATA_t *data_ptr;
 413:../Dave/Generated/E_EEPROM_XMC1/e_eeprom_xmc1.c ****   
 414:../Dave/Generated/E_EEPROM_XMC1/e_eeprom_xmc1.c ****   data_ptr = (E_EEPROM_XMC1_DATA_t*)(void*)(E_EEPROM_XMC1_HANDLE_PTR->data_ptr);
 415              	 .loc 2 414 0
 416 000e 104B     	 ldr r3,.L18
 417 0010 5B68     	 ldr r3,[r3,#4]
 418 0012 BB60     	 str r3,[r7,#8]
 415:../Dave/Generated/E_EEPROM_XMC1/e_eeprom_xmc1.c ****   
 416:../Dave/Generated/E_EEPROM_XMC1/e_eeprom_xmc1.c ****   XMC_ASSERT("E_EEPROM_XMC1_Write:Wrong Block Number", (E_EEPROM_XMC1_lGetUsrBlockIndex(block_numbe
 417:../Dave/Generated/E_EEPROM_XMC1/e_eeprom_xmc1.c ****                                                         E_EEPROM_XMC1_LOG_BLOCK_NOT_FOUND))
 418:../Dave/Generated/E_EEPROM_XMC1/e_eeprom_xmc1.c ****   XMC_ASSERT("E_EEPROM_XMC1_Write:Invalid Buffer Pointer", (data_buffer_ptr != NULL))
 419:../Dave/Generated/E_EEPROM_XMC1/e_eeprom_xmc1.c ****   
 420:../Dave/Generated/E_EEPROM_XMC1/e_eeprom_xmc1.c ****   status = E_EEPROM_XMC1_OPERATION_STATUS_NOT_ALLOWED;
 419              	 .loc 2 420 0
 420 0014 0F23     	 mov r3,#15
 421 0016 FB18     	 add r3,r7,r3
 422 0018 0522     	 mov r2,#5
 423 001a 1A70     	 strb r2,[r3]
 421:../Dave/Generated/E_EEPROM_XMC1/e_eeprom_xmc1.c **** 
 422:../Dave/Generated/E_EEPROM_XMC1/e_eeprom_xmc1.c ****   /* Execute only if there is no previous pending request and the GC process is in IDLE state */
 423:../Dave/Generated/E_EEPROM_XMC1/e_eeprom_xmc1.c ****   if (data_ptr->gc_state == E_EEPROM_XMC1_GC_IDLE)
 424              	 .loc 2 423 0
 425 001c BA68     	 ldr r2,[r7,#8]
 426 001e BA23     	 mov r3,#186
 427 0020 5B00     	 lsl r3,r3,#1
 428 0022 D358     	 ldr r3,[r2,r3]
 429 0024 0A2B     	 cmp r3,#10
 430 0026 0BD1     	 bne .L16
 424:../Dave/Generated/E_EEPROM_XMC1/e_eeprom_xmc1.c ****   {
 425:../Dave/Generated/E_EEPROM_XMC1/e_eeprom_xmc1.c ****     /* Call local function to write the specified block of data into flash */
 426:../Dave/Generated/E_EEPROM_XMC1/e_eeprom_xmc1.c ****     status = (E_EEPROM_XMC1_OPERATION_STATUS_t)E_EEPROM_XMC1_lLocalWrite(block_number, data_buffer_
 431              	 .loc 2 426 0
 432 0028 FB1D     	 add r3,r7,#7
 433 002a 1A78     	 ldrb r2,[r3]
 434 002c 3B68     	 ldr r3,[r7]
 435 002e 101C     	 mov r0,r2
 436 0030 191C     	 mov r1,r3
 437 0032 0022     	 mov r2,#0
 438 0034 FFF7FEFF 	 bl E_EEPROM_XMC1_lLocalWrite
 439 0038 021C     	 mov r2,r0
 440 003a 0F23     	 mov r3,#15
 441 003c FB18     	 add r3,r7,r3
 442 003e 1A70     	 strb r2,[r3]
 443              	.L16:
 427:../Dave/Generated/E_EEPROM_XMC1/e_eeprom_xmc1.c ****   }
 428:../Dave/Generated/E_EEPROM_XMC1/e_eeprom_xmc1.c **** 
 429:../Dave/Generated/E_EEPROM_XMC1/e_eeprom_xmc1.c ****   return((E_EEPROM_XMC1_OPERATION_STATUS_t)status);
 444              	 .loc 2 429 0
 445 0040 0F23     	 mov r3,#15
 446 0042 FB18     	 add r3,r7,r3
 447 0044 1B78     	 ldrb r3,[r3]
 430:../Dave/Generated/E_EEPROM_XMC1/e_eeprom_xmc1.c **** }
 448              	 .loc 2 430 0
 449 0046 181C     	 mov r0,r3
 450 0048 BD46     	 mov sp,r7
 451 004a 04B0     	 add sp,sp,#16
 452              	 
 453 004c 80BD     	 pop {r7,pc}
 454              	.L19:
 455 004e C046     	 .align 2
 456              	.L18:
 457 0050 00000000 	 .word E_EEPROM_XMC1_0
 458              	 .cfi_endproc
 459              	.LFE50:
 461              	 .section .text.E_EEPROM_XMC1_InvalidateBlock,"ax",%progbits
 462              	 .align 2
 463              	 .global E_EEPROM_XMC1_InvalidateBlock
 464              	 .code 16
 465              	 .thumb_func
 467              	E_EEPROM_XMC1_InvalidateBlock:
 468              	.LFB51:
 431:../Dave/Generated/E_EEPROM_XMC1/e_eeprom_xmc1.c **** 
 432:../Dave/Generated/E_EEPROM_XMC1/e_eeprom_xmc1.c **** /*
 433:../Dave/Generated/E_EEPROM_XMC1/e_eeprom_xmc1.c **** * Parameters(IN)  : block_number  - Number of logical block (Block-ID)
 434:../Dave/Generated/E_EEPROM_XMC1/e_eeprom_xmc1.c **** *
 435:../Dave/Generated/E_EEPROM_XMC1/e_eeprom_xmc1.c **** * Return value    : E_EEPROM_XMC1_OPERATION_STATUS_t
 436:../Dave/Generated/E_EEPROM_XMC1/e_eeprom_xmc1.c **** * 
 437:../Dave/Generated/E_EEPROM_XMC1/e_eeprom_xmc1.c **** * Description     : This function shall invalidate user data block.
 438:../Dave/Generated/E_EEPROM_XMC1/e_eeprom_xmc1.c **** */
 439:../Dave/Generated/E_EEPROM_XMC1/e_eeprom_xmc1.c **** E_EEPROM_XMC1_OPERATION_STATUS_t E_EEPROM_XMC1_InvalidateBlock(uint8_t block_number)
 440:../Dave/Generated/E_EEPROM_XMC1/e_eeprom_xmc1.c **** {
 469              	 .loc 2 440 0
 470              	 .cfi_startproc
 471 0000 80B5     	 push {r7,lr}
 472              	.LCFI15:
 473              	 .cfi_def_cfa_offset 8
 474              	 .cfi_offset 7,-8
 475              	 .cfi_offset 14,-4
 476 0002 86B0     	 sub sp,sp,#24
 477              	.LCFI16:
 478              	 .cfi_def_cfa_offset 32
 479 0004 00AF     	 add r7,sp,#0
 480              	.LCFI17:
 481              	 .cfi_def_cfa_register 7
 482 0006 021C     	 mov r2,r0
 483 0008 FB1D     	 add r3,r7,#7
 484 000a 1A70     	 strb r2,[r3]
 441:../Dave/Generated/E_EEPROM_XMC1/e_eeprom_xmc1.c ****   uint8_t* data_buffer_ptr;
 442:../Dave/Generated/E_EEPROM_XMC1/e_eeprom_xmc1.c ****   E_EEPROM_XMC1_DATA_t *data_ptr;
 443:../Dave/Generated/E_EEPROM_XMC1/e_eeprom_xmc1.c ****   E_EEPROM_XMC1_OPERATION_STATUS_t status;
 444:../Dave/Generated/E_EEPROM_XMC1/e_eeprom_xmc1.c **** 
 445:../Dave/Generated/E_EEPROM_XMC1/e_eeprom_xmc1.c ****   data_ptr = (E_EEPROM_XMC1_DATA_t*)(void*)(E_EEPROM_XMC1_HANDLE_PTR->data_ptr);
 485              	 .loc 2 445 0
 486 000c 114B     	 ldr r3,.L23
 487 000e 5B68     	 ldr r3,[r3,#4]
 488 0010 3B61     	 str r3,[r7,#16]
 446:../Dave/Generated/E_EEPROM_XMC1/e_eeprom_xmc1.c ****   XMC_ASSERT("E_EEPROM_XMC1_InvalidateBlock:Wrong Block Number", (E_EEPROM_XMC1_lGetUsrBlockIndex(b
 447:../Dave/Generated/E_EEPROM_XMC1/e_eeprom_xmc1.c ****                                                                   E_EEPROM_XMC1_LOG_BLOCK_NOT_FOUND
 448:../Dave/Generated/E_EEPROM_XMC1/e_eeprom_xmc1.c ****   data_buffer_ptr =  data_ptr->read_write_buffer;
 489              	 .loc 2 448 0
 490 0012 3B69     	 ldr r3,[r7,#16]
 491 0014 5C33     	 add r3,r3,#92
 492 0016 FB60     	 str r3,[r7,#12]
 449:../Dave/Generated/E_EEPROM_XMC1/e_eeprom_xmc1.c ****   status = E_EEPROM_XMC1_OPERATION_STATUS_NOT_ALLOWED;
 493              	 .loc 2 449 0
 494 0018 1723     	 mov r3,#23
 495 001a FB18     	 add r3,r7,r3
 496 001c 0522     	 mov r2,#5
 497 001e 1A70     	 strb r2,[r3]
 450:../Dave/Generated/E_EEPROM_XMC1/e_eeprom_xmc1.c **** 
 451:../Dave/Generated/E_EEPROM_XMC1/e_eeprom_xmc1.c ****   /* Execute only if there is no previous pending request and the GC process is in IDLE state */
 452:../Dave/Generated/E_EEPROM_XMC1/e_eeprom_xmc1.c ****   if (data_ptr->gc_state == E_EEPROM_XMC1_GC_IDLE)
 498              	 .loc 2 452 0
 499 0020 3A69     	 ldr r2,[r7,#16]
 500 0022 BA23     	 mov r3,#186
 501 0024 5B00     	 lsl r3,r3,#1
 502 0026 D358     	 ldr r3,[r2,r3]
 503 0028 0A2B     	 cmp r3,#10
 504 002a 0BD1     	 bne .L21
 453:../Dave/Generated/E_EEPROM_XMC1/e_eeprom_xmc1.c ****   {
 454:../Dave/Generated/E_EEPROM_XMC1/e_eeprom_xmc1.c ****     /* Call local function to write the specified block of data into flash */
 455:../Dave/Generated/E_EEPROM_XMC1/e_eeprom_xmc1.c ****     status = (E_EEPROM_XMC1_OPERATION_STATUS_t)E_EEPROM_XMC1_lLocalWrite( block_number, data_buffer
 505              	 .loc 2 455 0
 506 002c FB1D     	 add r3,r7,#7
 507 002e 1A78     	 ldrb r2,[r3]
 508 0030 FB68     	 ldr r3,[r7,#12]
 509 0032 101C     	 mov r0,r2
 510 0034 191C     	 mov r1,r3
 511 0036 0122     	 mov r2,#1
 512 0038 FFF7FEFF 	 bl E_EEPROM_XMC1_lLocalWrite
 513 003c 021C     	 mov r2,r0
 514 003e 1723     	 mov r3,#23
 515 0040 FB18     	 add r3,r7,r3
 516 0042 1A70     	 strb r2,[r3]
 517              	.L21:
 456:../Dave/Generated/E_EEPROM_XMC1/e_eeprom_xmc1.c ****   }
 457:../Dave/Generated/E_EEPROM_XMC1/e_eeprom_xmc1.c **** 
 458:../Dave/Generated/E_EEPROM_XMC1/e_eeprom_xmc1.c ****   return((E_EEPROM_XMC1_OPERATION_STATUS_t)status);
 518              	 .loc 2 458 0
 519 0044 1723     	 mov r3,#23
 520 0046 FB18     	 add r3,r7,r3
 521 0048 1B78     	 ldrb r3,[r3]
 459:../Dave/Generated/E_EEPROM_XMC1/e_eeprom_xmc1.c **** }
 522              	 .loc 2 459 0
 523 004a 181C     	 mov r0,r3
 524 004c BD46     	 mov sp,r7
 525 004e 06B0     	 add sp,sp,#24
 526              	 
 527 0050 80BD     	 pop {r7,pc}
 528              	.L24:
 529 0052 C046     	 .align 2
 530              	.L23:
 531 0054 00000000 	 .word E_EEPROM_XMC1_0
 532              	 .cfi_endproc
 533              	.LFE51:
 535              	 .section .text.E_EEPROM_XMC1_Read,"ax",%progbits
 536              	 .align 2
 537              	 .global E_EEPROM_XMC1_Read
 538              	 .code 16
 539              	 .thumb_func
 541              	E_EEPROM_XMC1_Read:
 542              	.LFB52:
 460:../Dave/Generated/E_EEPROM_XMC1/e_eeprom_xmc1.c **** 
 461:../Dave/Generated/E_EEPROM_XMC1/e_eeprom_xmc1.c **** /*
 462:../Dave/Generated/E_EEPROM_XMC1/e_eeprom_xmc1.c ****  * Parameters(IN)  : block_number  - Number of logical block
 463:../Dave/Generated/E_EEPROM_XMC1/e_eeprom_xmc1.c ****  *                   offset      - Start Location for Read start
 464:../Dave/Generated/E_EEPROM_XMC1/e_eeprom_xmc1.c ****  *                   data_buffer_ptr - Pointer to user data buffer
 465:../Dave/Generated/E_EEPROM_XMC1/e_eeprom_xmc1.c ****  *                   length      - End Location for read completion
 466:../Dave/Generated/E_EEPROM_XMC1/e_eeprom_xmc1.c ****  *
 467:../Dave/Generated/E_EEPROM_XMC1/e_eeprom_xmc1.c ****  * Return value    : E_EEPROM_XMC1_OPERATION_STATUS_t
 468:../Dave/Generated/E_EEPROM_XMC1/e_eeprom_xmc1.c ****  *                                                                   
 469:../Dave/Generated/E_EEPROM_XMC1/e_eeprom_xmc1.c ****  * Description     : This function shall read user data blocks from flash.
 470:../Dave/Generated/E_EEPROM_XMC1/e_eeprom_xmc1.c ****  */
 471:../Dave/Generated/E_EEPROM_XMC1/e_eeprom_xmc1.c **** E_EEPROM_XMC1_OPERATION_STATUS_t E_EEPROM_XMC1_Read(uint8_t block_number,
 472:../Dave/Generated/E_EEPROM_XMC1/e_eeprom_xmc1.c ****                                                     uint32_t offset,
 473:../Dave/Generated/E_EEPROM_XMC1/e_eeprom_xmc1.c ****                                                     uint8_t *data_buffer_ptr,
 474:../Dave/Generated/E_EEPROM_XMC1/e_eeprom_xmc1.c ****                                                     uint32_t length)
 475:../Dave/Generated/E_EEPROM_XMC1/e_eeprom_xmc1.c **** {
 543              	 .loc 2 475 0
 544              	 .cfi_startproc
 545 0000 80B5     	 push {r7,lr}
 546              	.LCFI18:
 547              	 .cfi_def_cfa_offset 8
 548              	 .cfi_offset 7,-8
 549              	 .cfi_offset 14,-4
 550 0002 88B0     	 sub sp,sp,#32
 551              	.LCFI19:
 552              	 .cfi_def_cfa_offset 40
 553 0004 00AF     	 add r7,sp,#0
 554              	.LCFI20:
 555              	 .cfi_def_cfa_register 7
 556 0006 B960     	 str r1,[r7,#8]
 557 0008 7A60     	 str r2,[r7,#4]
 558 000a 3B60     	 str r3,[r7]
 559 000c 0F23     	 mov r3,#15
 560 000e FB18     	 add r3,r7,r3
 561 0010 021C     	 add r2,r0,#0
 562 0012 1A70     	 strb r2,[r3]
 476:../Dave/Generated/E_EEPROM_XMC1/e_eeprom_xmc1.c ****   uint32_t block_size;
 477:../Dave/Generated/E_EEPROM_XMC1/e_eeprom_xmc1.c ****   uint32_t user_block_index;
 478:../Dave/Generated/E_EEPROM_XMC1/e_eeprom_xmc1.c ****   E_EEPROM_XMC1_DATA_t *data_ptr;
 479:../Dave/Generated/E_EEPROM_XMC1/e_eeprom_xmc1.c ****   E_EEPROM_XMC1_OPERATION_STATUS_t status;
 480:../Dave/Generated/E_EEPROM_XMC1/e_eeprom_xmc1.c **** 
 481:../Dave/Generated/E_EEPROM_XMC1/e_eeprom_xmc1.c ****   data_ptr = (E_EEPROM_XMC1_DATA_t*)(void*)(E_EEPROM_XMC1_HANDLE_PTR->data_ptr);
 563              	 .loc 2 481 0
 564 0014 314B     	 ldr r3,.L30
 565 0016 5B68     	 ldr r3,[r3,#4]
 566 0018 BB61     	 str r3,[r7,#24]
 482:../Dave/Generated/E_EEPROM_XMC1/e_eeprom_xmc1.c ****   user_block_index = E_EEPROM_XMC1_lGetUsrBlockIndex(block_number);
 567              	 .loc 2 482 0
 568 001a 0F23     	 mov r3,#15
 569 001c FB18     	 add r3,r7,r3
 570 001e 1B78     	 ldrb r3,[r3]
 571 0020 181C     	 mov r0,r3
 572 0022 FFF7FEFF 	 bl E_EEPROM_XMC1_lGetUsrBlockIndex
 573 0026 031C     	 mov r3,r0
 574 0028 7B61     	 str r3,[r7,#20]
 483:../Dave/Generated/E_EEPROM_XMC1/e_eeprom_xmc1.c ****   block_size = E_EEPROM_XMC1_HANDLE_PTR->block_config_ptr[user_block_index].size;
 575              	 .loc 2 483 0
 576 002a 2C4B     	 ldr r3,.L30
 577 002c 1A68     	 ldr r2,[r3]
 578 002e 7B69     	 ldr r3,[r7,#20]
 579 0030 DB00     	 lsl r3,r3,#3
 580 0032 D318     	 add r3,r2,r3
 581 0034 5B68     	 ldr r3,[r3,#4]
 582 0036 3B61     	 str r3,[r7,#16]
 484:../Dave/Generated/E_EEPROM_XMC1/e_eeprom_xmc1.c ****   
 485:../Dave/Generated/E_EEPROM_XMC1/e_eeprom_xmc1.c ****   XMC_ASSERT("E_EEPROM_XMC1_Read:Wrong Block Number", (user_block_index  != E_EEPROM_XMC1_LOG_BLOCK
 486:../Dave/Generated/E_EEPROM_XMC1/e_eeprom_xmc1.c ****   XMC_ASSERT("E_EEPROM_XMC1_Read:Invalid Buffer Pointer", (data_buffer_ptr != NULL))
 487:../Dave/Generated/E_EEPROM_XMC1/e_eeprom_xmc1.c **** 
 488:../Dave/Generated/E_EEPROM_XMC1/e_eeprom_xmc1.c ****   status = E_EEPROM_XMC1_OPERATION_STATUS_NOT_ALLOWED;
 583              	 .loc 2 488 0
 584 0038 1F23     	 mov r3,#31
 585 003a FB18     	 add r3,r7,r3
 586 003c 0522     	 mov r2,#5
 587 003e 1A70     	 strb r2,[r3]
 489:../Dave/Generated/E_EEPROM_XMC1/e_eeprom_xmc1.c **** 
 490:../Dave/Generated/E_EEPROM_XMC1/e_eeprom_xmc1.c ****   /*Execute only if GC process is in IDLE state */
 491:../Dave/Generated/E_EEPROM_XMC1/e_eeprom_xmc1.c ****   if ((data_ptr->gc_state == E_EEPROM_XMC1_GC_IDLE) && (((uint32_t)offset + length) <= block_size))
 588              	 .loc 2 491 0
 589 0040 BA69     	 ldr r2,[r7,#24]
 590 0042 BA23     	 mov r3,#186
 591 0044 5B00     	 lsl r3,r3,#1
 592 0046 D358     	 ldr r3,[r2,r3]
 593 0048 0A2B     	 cmp r3,#10
 594 004a 40D1     	 bne .L26
 595              	 .loc 2 491 0 is_stmt 0 discriminator 1
 596 004c BA68     	 ldr r2,[r7,#8]
 597 004e 3B68     	 ldr r3,[r7]
 598 0050 D218     	 add r2,r2,r3
 599 0052 3B69     	 ldr r3,[r7,#16]
 600 0054 9A42     	 cmp r2,r3
 601 0056 3AD8     	 bhi .L26
 492:../Dave/Generated/E_EEPROM_XMC1/e_eeprom_xmc1.c ****   {
 493:../Dave/Generated/E_EEPROM_XMC1/e_eeprom_xmc1.c ****     if (data_ptr->block_info[user_block_index].status.valid == 0U) /* If cache says Inconsistent */
 602              	 .loc 2 493 0 is_stmt 1
 603 0058 BA69     	 ldr r2,[r7,#24]
 604 005a 7B69     	 ldr r3,[r7,#20]
 605 005c DB00     	 lsl r3,r3,#3
 606 005e D318     	 add r3,r2,r3
 607 0060 1B79     	 ldrb r3,[r3,#4]
 608 0062 DB07     	 lsl r3,r3,#31
 609 0064 DB0F     	 lsr r3,r3,#31
 610 0066 DBB2     	 uxtb r3,r3
 611 0068 002B     	 cmp r3,#0
 612 006a 04D1     	 bne .L27
 494:../Dave/Generated/E_EEPROM_XMC1/e_eeprom_xmc1.c ****     {
 495:../Dave/Generated/E_EEPROM_XMC1/e_eeprom_xmc1.c ****       status = E_EEPROM_XMC1_OPERATION_STATUS_INVALID_BLOCK;
 613              	 .loc 2 495 0
 614 006c 1F23     	 mov r3,#31
 615 006e FB18     	 add r3,r7,r3
 616 0070 0322     	 mov r2,#3
 617 0072 1A70     	 strb r2,[r3]
 618 0074 2BE0     	 b .L26
 619              	.L27:
 496:../Dave/Generated/E_EEPROM_XMC1/e_eeprom_xmc1.c ****     }
 497:../Dave/Generated/E_EEPROM_XMC1/e_eeprom_xmc1.c ****     else if (data_ptr->block_info[user_block_index].status.consistent == 0U) /* If cache says Inval
 620              	 .loc 2 497 0
 621 0076 BA69     	 ldr r2,[r7,#24]
 622 0078 7B69     	 ldr r3,[r7,#20]
 623 007a DB00     	 lsl r3,r3,#3
 624 007c D318     	 add r3,r2,r3
 625 007e 1B79     	 ldrb r3,[r3,#4]
 626 0080 9B07     	 lsl r3,r3,#30
 627 0082 DB0F     	 lsr r3,r3,#31
 628 0084 DBB2     	 uxtb r3,r3
 629 0086 002B     	 cmp r3,#0
 630 0088 04D1     	 bne .L28
 498:../Dave/Generated/E_EEPROM_XMC1/e_eeprom_xmc1.c ****     {
 499:../Dave/Generated/E_EEPROM_XMC1/e_eeprom_xmc1.c ****       status = E_EEPROM_XMC1_OPERATION_STATUS_INCONSISTENT_BLOCK;
 631              	 .loc 2 499 0
 632 008a 1F23     	 mov r3,#31
 633 008c FB18     	 add r3,r7,r3
 634 008e 0222     	 mov r2,#2
 635 0090 1A70     	 strb r2,[r3]
 636 0092 1CE0     	 b .L26
 637              	.L28:
 500:../Dave/Generated/E_EEPROM_XMC1/e_eeprom_xmc1.c ****     }
 501:../Dave/Generated/E_EEPROM_XMC1/e_eeprom_xmc1.c ****     else
 502:../Dave/Generated/E_EEPROM_XMC1/e_eeprom_xmc1.c ****     {
 503:../Dave/Generated/E_EEPROM_XMC1/e_eeprom_xmc1.c ****       data_ptr->read_start_address = data_ptr->block_info[user_block_index].address;
 638              	 .loc 2 503 0
 639 0094 BB69     	 ldr r3,[r7,#24]
 640 0096 7A69     	 ldr r2,[r7,#20]
 641 0098 D200     	 lsl r2,r2,#3
 642 009a D158     	 ldr r1,[r2,r3]
 643 009c BA69     	 ldr r2,[r7,#24]
 644 009e C623     	 mov r3,#198
 645 00a0 5B00     	 lsl r3,r3,#1
 646 00a2 D150     	 str r1,[r2,r3]
 504:../Dave/Generated/E_EEPROM_XMC1/e_eeprom_xmc1.c ****       status = (E_EEPROM_XMC1_OPERATION_STATUS_t)E_EEPROM_XMC1_lReadBlockContents(data_buffer_ptr ,
 647              	 .loc 2 504 0
 648 00a4 7968     	 ldr r1,[r7,#4]
 649 00a6 3A68     	 ldr r2,[r7]
 650 00a8 BB68     	 ldr r3,[r7,#8]
 651 00aa 081C     	 mov r0,r1
 652 00ac 111C     	 mov r1,r2
 653 00ae 1A1C     	 mov r2,r3
 654 00b0 FFF7FEFF 	 bl E_EEPROM_XMC1_lReadBlockContents
 655 00b4 021C     	 mov r2,r0
 656 00b6 1F23     	 mov r3,#31
 657 00b8 FB18     	 add r3,r7,r3
 658 00ba 1A70     	 strb r2,[r3]
 505:../Dave/Generated/E_EEPROM_XMC1/e_eeprom_xmc1.c **** 
 506:../Dave/Generated/E_EEPROM_XMC1/e_eeprom_xmc1.c ****       if ((uint32_t)status != 0U)
 659              	 .loc 2 506 0
 660 00bc 1F23     	 mov r3,#31
 661 00be FB18     	 add r3,r7,r3
 662 00c0 1B78     	 ldrb r3,[r3]
 663 00c2 002B     	 cmp r3,#0
 664 00c4 03D0     	 beq .L26
 507:../Dave/Generated/E_EEPROM_XMC1/e_eeprom_xmc1.c ****       {
 508:../Dave/Generated/E_EEPROM_XMC1/e_eeprom_xmc1.c ****          status = E_EEPROM_XMC1_OPERATION_STATUS_FAILURE;
 665              	 .loc 2 508 0
 666 00c6 1F23     	 mov r3,#31
 667 00c8 FB18     	 add r3,r7,r3
 668 00ca 0122     	 mov r2,#1
 669 00cc 1A70     	 strb r2,[r3]
 670              	.L26:
 509:../Dave/Generated/E_EEPROM_XMC1/e_eeprom_xmc1.c ****       }
 510:../Dave/Generated/E_EEPROM_XMC1/e_eeprom_xmc1.c ****     }
 511:../Dave/Generated/E_EEPROM_XMC1/e_eeprom_xmc1.c ****   }
 512:../Dave/Generated/E_EEPROM_XMC1/e_eeprom_xmc1.c ****   return((E_EEPROM_XMC1_OPERATION_STATUS_t)status);
 671              	 .loc 2 512 0
 672 00ce 1F23     	 mov r3,#31
 673 00d0 FB18     	 add r3,r7,r3
 674 00d2 1B78     	 ldrb r3,[r3]
 513:../Dave/Generated/E_EEPROM_XMC1/e_eeprom_xmc1.c **** }
 675              	 .loc 2 513 0
 676 00d4 181C     	 mov r0,r3
 677 00d6 BD46     	 mov sp,r7
 678 00d8 08B0     	 add sp,sp,#32
 679              	 
 680 00da 80BD     	 pop {r7,pc}
 681              	.L31:
 682              	 .align 2
 683              	.L30:
 684 00dc 00000000 	 .word E_EEPROM_XMC1_0
 685              	 .cfi_endproc
 686              	.LFE52:
 688              	 .section .text.E_EEPROM_XMC1_StartGarbageCollection,"ax",%progbits
 689              	 .align 2
 690              	 .global E_EEPROM_XMC1_StartGarbageCollection
 691              	 .code 16
 692              	 .thumb_func
 694              	E_EEPROM_XMC1_StartGarbageCollection:
 695              	.LFB53:
 514:../Dave/Generated/E_EEPROM_XMC1/e_eeprom_xmc1.c **** 
 515:../Dave/Generated/E_EEPROM_XMC1/e_eeprom_xmc1.c **** /*
 516:../Dave/Generated/E_EEPROM_XMC1/e_eeprom_xmc1.c ****  * Parameters(IN)  : void
 517:../Dave/Generated/E_EEPROM_XMC1/e_eeprom_xmc1.c ****  *
 518:../Dave/Generated/E_EEPROM_XMC1/e_eeprom_xmc1.c ****  * Return value    : E_EEPROM_XMC1_OPERATION_STATUS_t
 519:../Dave/Generated/E_EEPROM_XMC1/e_eeprom_xmc1.c ****  * 
 520:../Dave/Generated/E_EEPROM_XMC1/e_eeprom_xmc1.c ****  * Description     : This function shall start Garbage collection.
 521:../Dave/Generated/E_EEPROM_XMC1/e_eeprom_xmc1.c ****  */
 522:../Dave/Generated/E_EEPROM_XMC1/e_eeprom_xmc1.c **** E_EEPROM_XMC1_OPERATION_STATUS_t E_EEPROM_XMC1_StartGarbageCollection(void)
 523:../Dave/Generated/E_EEPROM_XMC1/e_eeprom_xmc1.c **** {
 696              	 .loc 2 523 0
 697              	 .cfi_startproc
 698 0000 80B5     	 push {r7,lr}
 699              	.LCFI21:
 700              	 .cfi_def_cfa_offset 8
 701              	 .cfi_offset 7,-8
 702              	 .cfi_offset 14,-4
 703 0002 82B0     	 sub sp,sp,#8
 704              	.LCFI22:
 705              	 .cfi_def_cfa_offset 16
 706 0004 00AF     	 add r7,sp,#0
 707              	.LCFI23:
 708              	 .cfi_def_cfa_register 7
 524:../Dave/Generated/E_EEPROM_XMC1/e_eeprom_xmc1.c ****   E_EEPROM_XMC1_DATA_t *data_ptr;
 525:../Dave/Generated/E_EEPROM_XMC1/e_eeprom_xmc1.c ****   E_EEPROM_XMC1_OPERATION_STATUS_t status;
 526:../Dave/Generated/E_EEPROM_XMC1/e_eeprom_xmc1.c ****   
 527:../Dave/Generated/E_EEPROM_XMC1/e_eeprom_xmc1.c ****   data_ptr = (E_EEPROM_XMC1_DATA_t*)(void*)(E_EEPROM_XMC1_HANDLE_PTR->data_ptr);
 709              	 .loc 2 527 0
 710 0006 134B     	 ldr r3,.L36
 711 0008 5B68     	 ldr r3,[r3,#4]
 712 000a 3B60     	 str r3,[r7]
 528:../Dave/Generated/E_EEPROM_XMC1/e_eeprom_xmc1.c ****   
 529:../Dave/Generated/E_EEPROM_XMC1/e_eeprom_xmc1.c ****   status = E_EEPROM_XMC1_OPERATION_STATUS_NOT_ALLOWED;
 713              	 .loc 2 529 0
 714 000c FB1D     	 add r3,r7,#7
 715 000e 0522     	 mov r2,#5
 716 0010 1A70     	 strb r2,[r3]
 530:../Dave/Generated/E_EEPROM_XMC1/e_eeprom_xmc1.c **** 
 531:../Dave/Generated/E_EEPROM_XMC1/e_eeprom_xmc1.c ****   /* Check if the E_EEPROM_XMC1_Init API is called */
 532:../Dave/Generated/E_EEPROM_XMC1/e_eeprom_xmc1.c ****   if (data_ptr->gc_state == E_EEPROM_XMC1_GC_IDLE)
 717              	 .loc 2 532 0
 718 0012 3A68     	 ldr r2,[r7]
 719 0014 BA23     	 mov r3,#186
 720 0016 5B00     	 lsl r3,r3,#1
 721 0018 D358     	 ldr r3,[r2,r3]
 722 001a 0A2B     	 cmp r3,#10
 723 001c 13D1     	 bne .L33
 533:../Dave/Generated/E_EEPROM_XMC1/e_eeprom_xmc1.c ****   {
 534:../Dave/Generated/E_EEPROM_XMC1/e_eeprom_xmc1.c ****     data_ptr->gc_state = E_EEPROM_XMC1_GC_REQUESTED;
 724              	 .loc 2 534 0
 725 001e 3A68     	 ldr r2,[r7]
 726 0020 BA23     	 mov r3,#186
 727 0022 5B00     	 lsl r3,r3,#1
 728 0024 0421     	 mov r1,#4
 729 0026 D150     	 str r1,[r2,r3]
 535:../Dave/Generated/E_EEPROM_XMC1/e_eeprom_xmc1.c ****     
 536:../Dave/Generated/E_EEPROM_XMC1/e_eeprom_xmc1.c ****     /* Call local function to start garbage collection process from scratch */
 537:../Dave/Generated/E_EEPROM_XMC1/e_eeprom_xmc1.c ****     E_EEPROM_XMC1_lGarbageCollection();
 730              	 .loc 2 537 0
 731 0028 FFF7FEFF 	 bl E_EEPROM_XMC1_lGarbageCollection
 538:../Dave/Generated/E_EEPROM_XMC1/e_eeprom_xmc1.c ****     
 539:../Dave/Generated/E_EEPROM_XMC1/e_eeprom_xmc1.c ****     if (data_ptr->gc_state == E_EEPROM_XMC1_GC_FAIL)
 732              	 .loc 2 539 0
 733 002c 3A68     	 ldr r2,[r7]
 734 002e BA23     	 mov r3,#186
 735 0030 5B00     	 lsl r3,r3,#1
 736 0032 D358     	 ldr r3,[r2,r3]
 737 0034 092B     	 cmp r3,#9
 738 0036 03D1     	 bne .L34
 540:../Dave/Generated/E_EEPROM_XMC1/e_eeprom_xmc1.c ****     {
 541:../Dave/Generated/E_EEPROM_XMC1/e_eeprom_xmc1.c ****       status = E_EEPROM_XMC1_OPERATION_STATUS_FAILURE;
 739              	 .loc 2 541 0
 740 0038 FB1D     	 add r3,r7,#7
 741 003a 0122     	 mov r2,#1
 742 003c 1A70     	 strb r2,[r3]
 743 003e 02E0     	 b .L33
 744              	.L34:
 542:../Dave/Generated/E_EEPROM_XMC1/e_eeprom_xmc1.c ****     }
 543:../Dave/Generated/E_EEPROM_XMC1/e_eeprom_xmc1.c ****     else
 544:../Dave/Generated/E_EEPROM_XMC1/e_eeprom_xmc1.c ****     {
 545:../Dave/Generated/E_EEPROM_XMC1/e_eeprom_xmc1.c ****       status = E_EEPROM_XMC1_OPERATION_STATUS_SUCCESS;
 745              	 .loc 2 545 0
 746 0040 FB1D     	 add r3,r7,#7
 747 0042 0022     	 mov r2,#0
 748 0044 1A70     	 strb r2,[r3]
 749              	.L33:
 546:../Dave/Generated/E_EEPROM_XMC1/e_eeprom_xmc1.c ****     }
 547:../Dave/Generated/E_EEPROM_XMC1/e_eeprom_xmc1.c ****   }
 548:../Dave/Generated/E_EEPROM_XMC1/e_eeprom_xmc1.c ****   
 549:../Dave/Generated/E_EEPROM_XMC1/e_eeprom_xmc1.c ****   return((E_EEPROM_XMC1_OPERATION_STATUS_t)status);
 750              	 .loc 2 549 0
 751 0046 FB1D     	 add r3,r7,#7
 752 0048 1B78     	 ldrb r3,[r3]
 550:../Dave/Generated/E_EEPROM_XMC1/e_eeprom_xmc1.c **** }
 753              	 .loc 2 550 0
 754 004a 181C     	 mov r0,r3
 755 004c BD46     	 mov sp,r7
 756 004e 02B0     	 add sp,sp,#8
 757              	 
 758 0050 80BD     	 pop {r7,pc}
 759              	.L37:
 760 0052 C046     	 .align 2
 761              	.L36:
 762 0054 00000000 	 .word E_EEPROM_XMC1_0
 763              	 .cfi_endproc
 764              	.LFE53:
 766              	 .section .text.E_EEPROM_XMC1_GetStatus,"ax",%progbits
 767              	 .align 2
 768              	 .global E_EEPROM_XMC1_GetStatus
 769              	 .code 16
 770              	 .thumb_func
 772              	E_EEPROM_XMC1_GetStatus:
 773              	.LFB54:
 551:../Dave/Generated/E_EEPROM_XMC1/e_eeprom_xmc1.c **** 
 552:../Dave/Generated/E_EEPROM_XMC1/e_eeprom_xmc1.c **** /*
 553:../Dave/Generated/E_EEPROM_XMC1/e_eeprom_xmc1.c ****  * Parameters(IN)  : void
 554:../Dave/Generated/E_EEPROM_XMC1/e_eeprom_xmc1.c ****  *
 555:../Dave/Generated/E_EEPROM_XMC1/e_eeprom_xmc1.c ****  * Return value    : E_EEPROM_XMC1_STATUS_t
 556:../Dave/Generated/E_EEPROM_XMC1/e_eeprom_xmc1.c ****  *
 557:../Dave/Generated/E_EEPROM_XMC1/e_eeprom_xmc1.c ****  * Description     : This function shall return the status of the APP
 558:../Dave/Generated/E_EEPROM_XMC1/e_eeprom_xmc1.c ****  */
 559:../Dave/Generated/E_EEPROM_XMC1/e_eeprom_xmc1.c **** E_EEPROM_XMC1_STATUS_t E_EEPROM_XMC1_GetStatus(void)
 560:../Dave/Generated/E_EEPROM_XMC1/e_eeprom_xmc1.c **** {
 774              	 .loc 2 560 0
 775              	 .cfi_startproc
 776 0000 80B5     	 push {r7,lr}
 777              	.LCFI24:
 778              	 .cfi_def_cfa_offset 8
 779              	 .cfi_offset 7,-8
 780              	 .cfi_offset 14,-4
 781 0002 82B0     	 sub sp,sp,#8
 782              	.LCFI25:
 783              	 .cfi_def_cfa_offset 16
 784 0004 00AF     	 add r7,sp,#0
 785              	.LCFI26:
 786              	 .cfi_def_cfa_register 7
 561:../Dave/Generated/E_EEPROM_XMC1/e_eeprom_xmc1.c ****   E_EEPROM_XMC1_STATUS_t status;
 562:../Dave/Generated/E_EEPROM_XMC1/e_eeprom_xmc1.c ****   E_EEPROM_XMC1_DATA_t *data_ptr;
 563:../Dave/Generated/E_EEPROM_XMC1/e_eeprom_xmc1.c ****   data_ptr = (E_EEPROM_XMC1_DATA_t*)(void*)(E_EEPROM_XMC1_HANDLE_PTR->data_ptr);
 787              	 .loc 2 563 0
 788 0006 104B     	 ldr r3,.L43
 789 0008 5B68     	 ldr r3,[r3,#4]
 790 000a 3B60     	 str r3,[r7]
 564:../Dave/Generated/E_EEPROM_XMC1/e_eeprom_xmc1.c ****   
 565:../Dave/Generated/E_EEPROM_XMC1/e_eeprom_xmc1.c ****   /* If the GC/InitGC has failed */
 566:../Dave/Generated/E_EEPROM_XMC1/e_eeprom_xmc1.c ****   if (data_ptr->gc_state == E_EEPROM_XMC1_GC_IDLE)
 791              	 .loc 2 566 0
 792 000c 3A68     	 ldr r2,[r7]
 793 000e BA23     	 mov r3,#186
 794 0010 5B00     	 lsl r3,r3,#1
 795 0012 D358     	 ldr r3,[r2,r3]
 796 0014 0A2B     	 cmp r3,#10
 797 0016 03D1     	 bne .L39
 567:../Dave/Generated/E_EEPROM_XMC1/e_eeprom_xmc1.c ****   {
 568:../Dave/Generated/E_EEPROM_XMC1/e_eeprom_xmc1.c ****      status = E_EEPROM_XMC1_STATUS_IDLE;
 798              	 .loc 2 568 0
 799 0018 FB1D     	 add r3,r7,#7
 800 001a 0322     	 mov r2,#3
 801 001c 1A70     	 strb r2,[r3]
 802 001e 0CE0     	 b .L40
 803              	.L39:
 569:../Dave/Generated/E_EEPROM_XMC1/e_eeprom_xmc1.c ****   }
 570:../Dave/Generated/E_EEPROM_XMC1/e_eeprom_xmc1.c ****   else if (data_ptr->gc_state == E_EEPROM_XMC1_GC_FAIL)
 804              	 .loc 2 570 0
 805 0020 3A68     	 ldr r2,[r7]
 806 0022 BA23     	 mov r3,#186
 807 0024 5B00     	 lsl r3,r3,#1
 808 0026 D358     	 ldr r3,[r2,r3]
 809 0028 092B     	 cmp r3,#9
 810 002a 03D1     	 bne .L41
 571:../Dave/Generated/E_EEPROM_XMC1/e_eeprom_xmc1.c ****   {
 572:../Dave/Generated/E_EEPROM_XMC1/e_eeprom_xmc1.c ****      status = E_EEPROM_XMC1_STATUS_FAILURE;
 811              	 .loc 2 572 0
 812 002c FB1D     	 add r3,r7,#7
 813 002e 0122     	 mov r2,#1
 814 0030 1A70     	 strb r2,[r3]
 815 0032 02E0     	 b .L40
 816              	.L41:
 573:../Dave/Generated/E_EEPROM_XMC1/e_eeprom_xmc1.c ****   }
 574:../Dave/Generated/E_EEPROM_XMC1/e_eeprom_xmc1.c ****   else
 575:../Dave/Generated/E_EEPROM_XMC1/e_eeprom_xmc1.c ****   {
 576:../Dave/Generated/E_EEPROM_XMC1/e_eeprom_xmc1.c ****      status = E_EEPROM_XMC1_STATUS_BUSY;
 817              	 .loc 2 576 0
 818 0034 FB1D     	 add r3,r7,#7
 819 0036 0422     	 mov r2,#4
 820 0038 1A70     	 strb r2,[r3]
 821              	.L40:
 577:../Dave/Generated/E_EEPROM_XMC1/e_eeprom_xmc1.c ****   }
 578:../Dave/Generated/E_EEPROM_XMC1/e_eeprom_xmc1.c ****   
 579:../Dave/Generated/E_EEPROM_XMC1/e_eeprom_xmc1.c ****   return (status);
 822              	 .loc 2 579 0
 823 003a FB1D     	 add r3,r7,#7
 824 003c 1B78     	 ldrb r3,[r3]
 580:../Dave/Generated/E_EEPROM_XMC1/e_eeprom_xmc1.c **** }
 825              	 .loc 2 580 0
 826 003e 181C     	 mov r0,r3
 827 0040 BD46     	 mov sp,r7
 828 0042 02B0     	 add sp,sp,#8
 829              	 
 830 0044 80BD     	 pop {r7,pc}
 831              	.L44:
 832 0046 C046     	 .align 2
 833              	.L43:
 834 0048 00000000 	 .word E_EEPROM_XMC1_0
 835              	 .cfi_endproc
 836              	.LFE54:
 838              	 .section .text.E_EEPROM_XMC1_IsGarbageCollectionNeeded,"ax",%progbits
 839              	 .align 2
 840              	 .global E_EEPROM_XMC1_IsGarbageCollectionNeeded
 841              	 .code 16
 842              	 .thumb_func
 844              	E_EEPROM_XMC1_IsGarbageCollectionNeeded:
 845              	.LFB55:
 581:../Dave/Generated/E_EEPROM_XMC1/e_eeprom_xmc1.c **** 
 582:../Dave/Generated/E_EEPROM_XMC1/e_eeprom_xmc1.c **** /*This function returns the whether the block can be fit inside the bank or it needs a garbage coll
 583:../Dave/Generated/E_EEPROM_XMC1/e_eeprom_xmc1.c **** bool E_EEPROM_XMC1_IsGarbageCollectionNeeded(uint8_t block_number)
 584:../Dave/Generated/E_EEPROM_XMC1/e_eeprom_xmc1.c **** {
 846              	 .loc 2 584 0
 847              	 .cfi_startproc
 848 0000 80B5     	 push {r7,lr}
 849              	.LCFI27:
 850              	 .cfi_def_cfa_offset 8
 851              	 .cfi_offset 7,-8
 852              	 .cfi_offset 14,-4
 853 0002 88B0     	 sub sp,sp,#32
 854              	.LCFI28:
 855              	 .cfi_def_cfa_offset 40
 856 0004 00AF     	 add r7,sp,#0
 857              	.LCFI29:
 858              	 .cfi_def_cfa_register 7
 859 0006 021C     	 mov r2,r0
 860 0008 FB1D     	 add r3,r7,#7
 861 000a 1A70     	 strb r2,[r3]
 585:../Dave/Generated/E_EEPROM_XMC1/e_eeprom_xmc1.c ****   bool status;
 586:../Dave/Generated/E_EEPROM_XMC1/e_eeprom_xmc1.c ****   uint32_t flash_blocks;
 587:../Dave/Generated/E_EEPROM_XMC1/e_eeprom_xmc1.c ****   uint32_t user_block_index;
 588:../Dave/Generated/E_EEPROM_XMC1/e_eeprom_xmc1.c ****   uint32_t remaining_blocks;
 589:../Dave/Generated/E_EEPROM_XMC1/e_eeprom_xmc1.c ****   E_EEPROM_XMC1_BLOCK_t *block_ptr;
 590:../Dave/Generated/E_EEPROM_XMC1/e_eeprom_xmc1.c **** 
 591:../Dave/Generated/E_EEPROM_XMC1/e_eeprom_xmc1.c ****   status = false;
 862              	 .loc 2 591 0
 863 000c 1F23     	 mov r3,#31
 864 000e FB18     	 add r3,r7,r3
 865 0010 0022     	 mov r2,#0
 866 0012 1A70     	 strb r2,[r3]
 592:../Dave/Generated/E_EEPROM_XMC1/e_eeprom_xmc1.c ****   user_block_index = E_EEPROM_XMC1_lGetUsrBlockIndex(block_number);
 867              	 .loc 2 592 0
 868 0014 FB1D     	 add r3,r7,#7
 869 0016 1B78     	 ldrb r3,[r3]
 870 0018 181C     	 mov r0,r3
 871 001a FFF7FEFF 	 bl E_EEPROM_XMC1_lGetUsrBlockIndex
 872 001e 031C     	 mov r3,r0
 873 0020 BB61     	 str r3,[r7,#24]
 593:../Dave/Generated/E_EEPROM_XMC1/e_eeprom_xmc1.c ****   block_ptr = E_EEPROM_XMC1_HANDLE_PTR->block_config_ptr + user_block_index;
 874              	 .loc 2 593 0
 875 0022 104B     	 ldr r3,.L48
 876 0024 1A68     	 ldr r2,[r3]
 877 0026 BB69     	 ldr r3,[r7,#24]
 878 0028 DB00     	 lsl r3,r3,#3
 879 002a D318     	 add r3,r2,r3
 880 002c 7B61     	 str r3,[r7,#20]
 594:../Dave/Generated/E_EEPROM_XMC1/e_eeprom_xmc1.c **** 
 595:../Dave/Generated/E_EEPROM_XMC1/e_eeprom_xmc1.c ****   XMC_ASSERT("E_EEPROM_XMC1_IsGarbageCollectionNeeded:Wrong Block Number", (user_block_index  !=
 596:../Dave/Generated/E_EEPROM_XMC1/e_eeprom_xmc1.c ****                                                                             E_EEPROM_XMC1_LOG_BLOCK
 597:../Dave/Generated/E_EEPROM_XMC1/e_eeprom_xmc1.c **** 
 598:../Dave/Generated/E_EEPROM_XMC1/e_eeprom_xmc1.c ****   flash_blocks = E_EEPROM_XMC1_lGetDFLASHPhysicalBlocks(block_ptr->size);
 881              	 .loc 2 598 0
 882 002e 7B69     	 ldr r3,[r7,#20]
 883 0030 5B68     	 ldr r3,[r3,#4]
 884 0032 181C     	 mov r0,r3
 885 0034 FFF7FEFF 	 bl E_EEPROM_XMC1_lGetDFLASHPhysicalBlocks
 886 0038 031C     	 mov r3,r0
 887 003a 3B61     	 str r3,[r7,#16]
 599:../Dave/Generated/E_EEPROM_XMC1/e_eeprom_xmc1.c ****   remaining_blocks = E_EEPROM_XMC1_lGetFreeDFLASHBlocks();
 888              	 .loc 2 599 0
 889 003c FFF7FEFF 	 bl E_EEPROM_XMC1_lGetFreeDFLASHBlocks
 890 0040 031C     	 mov r3,r0
 891 0042 FB60     	 str r3,[r7,#12]
 600:../Dave/Generated/E_EEPROM_XMC1/e_eeprom_xmc1.c **** 
 601:../Dave/Generated/E_EEPROM_XMC1/e_eeprom_xmc1.c ****   if (remaining_blocks < flash_blocks)
 892              	 .loc 2 601 0
 893 0044 FA68     	 ldr r2,[r7,#12]
 894 0046 3B69     	 ldr r3,[r7,#16]
 895 0048 9A42     	 cmp r2,r3
 896 004a 03D2     	 bcs .L46
 602:../Dave/Generated/E_EEPROM_XMC1/e_eeprom_xmc1.c ****   {
 603:../Dave/Generated/E_EEPROM_XMC1/e_eeprom_xmc1.c ****      status = true;
 897              	 .loc 2 603 0
 898 004c 1F23     	 mov r3,#31
 899 004e FB18     	 add r3,r7,r3
 900 0050 0122     	 mov r2,#1
 901 0052 1A70     	 strb r2,[r3]
 902              	.L46:
 604:../Dave/Generated/E_EEPROM_XMC1/e_eeprom_xmc1.c ****   }
 605:../Dave/Generated/E_EEPROM_XMC1/e_eeprom_xmc1.c **** 
 606:../Dave/Generated/E_EEPROM_XMC1/e_eeprom_xmc1.c ****   return (status);
 903              	 .loc 2 606 0
 904 0054 1F23     	 mov r3,#31
 905 0056 FB18     	 add r3,r7,r3
 906 0058 1B78     	 ldrb r3,[r3]
 607:../Dave/Generated/E_EEPROM_XMC1/e_eeprom_xmc1.c **** }
 907              	 .loc 2 607 0
 908 005a 181C     	 mov r0,r3
 909 005c BD46     	 mov sp,r7
 910 005e 08B0     	 add sp,sp,#32
 911              	 
 912 0060 80BD     	 pop {r7,pc}
 913              	.L49:
 914 0062 C046     	 .align 2
 915              	.L48:
 916 0064 00000000 	 .word E_EEPROM_XMC1_0
 917              	 .cfi_endproc
 918              	.LFE55:
 920              	 .section .text.E_EEPROM_XMC1_GetPreviousData,"ax",%progbits
 921              	 .align 2
 922              	 .global E_EEPROM_XMC1_GetPreviousData
 923              	 .code 16
 924              	 .thumb_func
 926              	E_EEPROM_XMC1_GetPreviousData:
 927              	.LFB56:
 608:../Dave/Generated/E_EEPROM_XMC1/e_eeprom_xmc1.c **** 
 609:../Dave/Generated/E_EEPROM_XMC1/e_eeprom_xmc1.c **** #ifdef E_EEPROM_XMC1_CRC_SW_ENABLED
 610:../Dave/Generated/E_EEPROM_XMC1/e_eeprom_xmc1.c **** 
 611:../Dave/Generated/E_EEPROM_XMC1/e_eeprom_xmc1.c **** /*
 612:../Dave/Generated/E_EEPROM_XMC1/e_eeprom_xmc1.c ****  * Parameters(IN)  : block_number  - Number of logical block
 613:../Dave/Generated/E_EEPROM_XMC1/e_eeprom_xmc1.c ****  *                   data_buffer_ptr - Pointer to user data buffer
 614:../Dave/Generated/E_EEPROM_XMC1/e_eeprom_xmc1.c ****  *
 615:../Dave/Generated/E_EEPROM_XMC1/e_eeprom_xmc1.c ****  * Return value    : E_EEPROM_XMC1_OPERATION_STATUS_t
 616:../Dave/Generated/E_EEPROM_XMC1/e_eeprom_xmc1.c ****  *
 617:../Dave/Generated/E_EEPROM_XMC1/e_eeprom_xmc1.c ****  * Description     : It reads the complete data block from the flash and compare the CRC from heade
 618:../Dave/Generated/E_EEPROM_XMC1/e_eeprom_xmc1.c ****  *                   with the computed CRC using CRC_SW APP. Read from arbitrary location and limit
 619:../Dave/Generated/E_EEPROM_XMC1/e_eeprom_xmc1.c ****  *                   possible under this API.
 620:../Dave/Generated/E_EEPROM_XMC1/e_eeprom_xmc1.c ****  */
 621:../Dave/Generated/E_EEPROM_XMC1/e_eeprom_xmc1.c **** E_EEPROM_XMC1_OPERATION_STATUS_t E_EEPROM_XMC1_VerifyBlockCrcStatus(uint8_t block_number, uint8_t *
 622:../Dave/Generated/E_EEPROM_XMC1/e_eeprom_xmc1.c **** {
 623:../Dave/Generated/E_EEPROM_XMC1/e_eeprom_xmc1.c ****   uint32_t block_size;
 624:../Dave/Generated/E_EEPROM_XMC1/e_eeprom_xmc1.c ****   uint32_t user_block_index;
 625:../Dave/Generated/E_EEPROM_XMC1/e_eeprom_xmc1.c ****   E_EEPROM_XMC1_DATA_t *data_ptr;
 626:../Dave/Generated/E_EEPROM_XMC1/e_eeprom_xmc1.c ****   E_EEPROM_XMC1_OPERATION_STATUS_t status;
 627:../Dave/Generated/E_EEPROM_XMC1/e_eeprom_xmc1.c ****   
 628:../Dave/Generated/E_EEPROM_XMC1/e_eeprom_xmc1.c ****   data_ptr = (E_EEPROM_XMC1_DATA_t*)(void*)(E_EEPROM_XMC1_HANDLE_PTR->data_ptr);
 629:../Dave/Generated/E_EEPROM_XMC1/e_eeprom_xmc1.c ****   user_block_index = (uint32_t)E_EEPROM_XMC1_lGetUsrBlockIndex( block_number);
 630:../Dave/Generated/E_EEPROM_XMC1/e_eeprom_xmc1.c ****   block_size = E_EEPROM_XMC1_HANDLE_PTR->block_config_ptr[user_block_index].size;
 631:../Dave/Generated/E_EEPROM_XMC1/e_eeprom_xmc1.c ****   
 632:../Dave/Generated/E_EEPROM_XMC1/e_eeprom_xmc1.c ****   XMC_ASSERT("E_EEPROM_XMC1_ReadBlockWithCRC:Wrong Block Number", (user_block_index  !=
 633:../Dave/Generated/E_EEPROM_XMC1/e_eeprom_xmc1.c ****                                                                    E_EEPROM_XMC1_LOG_BLOCK_NOT_FOUN
 634:../Dave/Generated/E_EEPROM_XMC1/e_eeprom_xmc1.c ****   XMC_ASSERT("E_EEPROM_XMC1_ReadBlockWithCRC:Invalid Buffer Pointer", (data_buffer_ptr != NULL))
 635:../Dave/Generated/E_EEPROM_XMC1/e_eeprom_xmc1.c ****   
 636:../Dave/Generated/E_EEPROM_XMC1/e_eeprom_xmc1.c ****   status = E_EEPROM_XMC1_OPERATION_STATUS_NOT_ALLOWED;
 637:../Dave/Generated/E_EEPROM_XMC1/e_eeprom_xmc1.c **** 
 638:../Dave/Generated/E_EEPROM_XMC1/e_eeprom_xmc1.c ****   /*Execute only if GC process is in IDLE state */
 639:../Dave/Generated/E_EEPROM_XMC1/e_eeprom_xmc1.c ****   if ((data_ptr->gc_state) == E_EEPROM_XMC1_GC_IDLE)
 640:../Dave/Generated/E_EEPROM_XMC1/e_eeprom_xmc1.c ****   {
 641:../Dave/Generated/E_EEPROM_XMC1/e_eeprom_xmc1.c ****     if (data_ptr->block_info[user_block_index].status.valid == 0U) /* If cache says Inconsistent */
 642:../Dave/Generated/E_EEPROM_XMC1/e_eeprom_xmc1.c ****     {
 643:../Dave/Generated/E_EEPROM_XMC1/e_eeprom_xmc1.c ****       status = E_EEPROM_XMC1_OPERATION_STATUS_INVALID_BLOCK;
 644:../Dave/Generated/E_EEPROM_XMC1/e_eeprom_xmc1.c ****     }
 645:../Dave/Generated/E_EEPROM_XMC1/e_eeprom_xmc1.c ****     else if (data_ptr->block_info[user_block_index].status.consistent == 0U) /* If cache says Inval
 646:../Dave/Generated/E_EEPROM_XMC1/e_eeprom_xmc1.c ****     {
 647:../Dave/Generated/E_EEPROM_XMC1/e_eeprom_xmc1.c ****       status = E_EEPROM_XMC1_OPERATION_STATUS_INCONSISTENT_BLOCK;
 648:../Dave/Generated/E_EEPROM_XMC1/e_eeprom_xmc1.c ****     }
 649:../Dave/Generated/E_EEPROM_XMC1/e_eeprom_xmc1.c ****     else
 650:../Dave/Generated/E_EEPROM_XMC1/e_eeprom_xmc1.c ****     {
 651:../Dave/Generated/E_EEPROM_XMC1/e_eeprom_xmc1.c ****       data_ptr->read_start_address = data_ptr->block_info[user_block_index].address ;
 652:../Dave/Generated/E_EEPROM_XMC1/e_eeprom_xmc1.c ****       /* Call local function to read the specified block of data from flash */
 653:../Dave/Generated/E_EEPROM_XMC1/e_eeprom_xmc1.c ****       status = (E_EEPROM_XMC1_OPERATION_STATUS_t)E_EEPROM_XMC1_lReadBlockContents(data_buffer_ptr,
 654:../Dave/Generated/E_EEPROM_XMC1/e_eeprom_xmc1.c ****                                                                                   block_size , 0U);
 655:../Dave/Generated/E_EEPROM_XMC1/e_eeprom_xmc1.c **** 
 656:../Dave/Generated/E_EEPROM_XMC1/e_eeprom_xmc1.c ****       if (status == E_EEPROM_XMC1_OPERATION_STATUS_SUCCESS)
 657:../Dave/Generated/E_EEPROM_XMC1/e_eeprom_xmc1.c ****       {
 658:../Dave/Generated/E_EEPROM_XMC1/e_eeprom_xmc1.c ****         /* Call local function to cross check the CRC, No ECC check done again for the CRC read fun
 659:../Dave/Generated/E_EEPROM_XMC1/e_eeprom_xmc1.c ****         status = (E_EEPROM_XMC1_OPERATION_STATUS_t)E_EEPROM_XMC1_lReadBlockCrcStatus(block_number, 
 660:../Dave/Generated/E_EEPROM_XMC1/e_eeprom_xmc1.c ****                                                                                      block_size);
 661:../Dave/Generated/E_EEPROM_XMC1/e_eeprom_xmc1.c ****       }
 662:../Dave/Generated/E_EEPROM_XMC1/e_eeprom_xmc1.c ****       else
 663:../Dave/Generated/E_EEPROM_XMC1/e_eeprom_xmc1.c ****       {
 664:../Dave/Generated/E_EEPROM_XMC1/e_eeprom_xmc1.c ****         status = E_EEPROM_XMC1_OPERATION_STATUS_FAILURE;
 665:../Dave/Generated/E_EEPROM_XMC1/e_eeprom_xmc1.c ****       }
 666:../Dave/Generated/E_EEPROM_XMC1/e_eeprom_xmc1.c ****     }
 667:../Dave/Generated/E_EEPROM_XMC1/e_eeprom_xmc1.c ****   }
 668:../Dave/Generated/E_EEPROM_XMC1/e_eeprom_xmc1.c ****   return((E_EEPROM_XMC1_OPERATION_STATUS_t)status);
 669:../Dave/Generated/E_EEPROM_XMC1/e_eeprom_xmc1.c **** }
 670:../Dave/Generated/E_EEPROM_XMC1/e_eeprom_xmc1.c **** #endif
 671:../Dave/Generated/E_EEPROM_XMC1/e_eeprom_xmc1.c **** 
 672:../Dave/Generated/E_EEPROM_XMC1/e_eeprom_xmc1.c **** /*
 673:../Dave/Generated/E_EEPROM_XMC1/e_eeprom_xmc1.c ****  * Parameters(IN)  :
 674:../Dave/Generated/E_EEPROM_XMC1/e_eeprom_xmc1.c ****  *                   block_number   - Number of logical block
 675:../Dave/Generated/E_EEPROM_XMC1/e_eeprom_xmc1.c ****  *                   offset       - Start Location for Read start
 676:../Dave/Generated/E_EEPROM_XMC1/e_eeprom_xmc1.c ****  *                   data_buffer_ptr - Pointer to user data buffer
 677:../Dave/Generated/E_EEPROM_XMC1/e_eeprom_xmc1.c ****  *                   length       - End Location for read completion
 678:../Dave/Generated/E_EEPROM_XMC1/e_eeprom_xmc1.c ****  *
 679:../Dave/Generated/E_EEPROM_XMC1/e_eeprom_xmc1.c ****  * Return value    : E_EEPROM_XMC1_STATUS_t
 680:../Dave/Generated/E_EEPROM_XMC1/e_eeprom_xmc1.c ****  *
 681:../Dave/Generated/E_EEPROM_XMC1/e_eeprom_xmc1.c ****  * Description     : This function shall read the just previous copy of the particular block when r
 682:../Dave/Generated/E_EEPROM_XMC1/e_eeprom_xmc1.c ****  *                   function is used commonly when the latest copy gets corrupted.
 683:../Dave/Generated/E_EEPROM_XMC1/e_eeprom_xmc1.c ****  */
 684:../Dave/Generated/E_EEPROM_XMC1/e_eeprom_xmc1.c **** E_EEPROM_XMC1_OPERATION_STATUS_t E_EEPROM_XMC1_GetPreviousData(uint8_t block_number,
 685:../Dave/Generated/E_EEPROM_XMC1/e_eeprom_xmc1.c ****                                                                uint32_t offset,
 686:../Dave/Generated/E_EEPROM_XMC1/e_eeprom_xmc1.c ****                                                                uint8_t *data_buffer_ptr,
 687:../Dave/Generated/E_EEPROM_XMC1/e_eeprom_xmc1.c ****                                                                uint32_t length)
 688:../Dave/Generated/E_EEPROM_XMC1/e_eeprom_xmc1.c **** {
 928              	 .loc 2 688 0
 929              	 .cfi_startproc
 930 0000 80B5     	 push {r7,lr}
 931              	.LCFI30:
 932              	 .cfi_def_cfa_offset 8
 933              	 .cfi_offset 7,-8
 934              	 .cfi_offset 14,-4
 935 0002 8AB0     	 sub sp,sp,#40
 936              	.LCFI31:
 937              	 .cfi_def_cfa_offset 48
 938 0004 00AF     	 add r7,sp,#0
 939              	.LCFI32:
 940              	 .cfi_def_cfa_register 7
 941 0006 B960     	 str r1,[r7,#8]
 942 0008 7A60     	 str r2,[r7,#4]
 943 000a 3B60     	 str r3,[r7]
 944 000c 0F23     	 mov r3,#15
 945 000e FB18     	 add r3,r7,r3
 946 0010 021C     	 add r2,r0,#0
 947 0012 1A70     	 strb r2,[r3]
 689:../Dave/Generated/E_EEPROM_XMC1/e_eeprom_xmc1.c ****   uint32_t block_size;
 690:../Dave/Generated/E_EEPROM_XMC1/e_eeprom_xmc1.c ****   uint32_t read_start_addr;
 691:../Dave/Generated/E_EEPROM_XMC1/e_eeprom_xmc1.c ****   uint32_t user_block_index;
 692:../Dave/Generated/E_EEPROM_XMC1/e_eeprom_xmc1.c ****   E_EEPROM_XMC1_DATA_t *data_ptr;
 693:../Dave/Generated/E_EEPROM_XMC1/e_eeprom_xmc1.c ****   E_EEPROM_XMC1_OPERATION_STATUS_t status;
 694:../Dave/Generated/E_EEPROM_XMC1/e_eeprom_xmc1.c ****   
 695:../Dave/Generated/E_EEPROM_XMC1/e_eeprom_xmc1.c ****   data_ptr = (E_EEPROM_XMC1_DATA_t*)(void*)(E_EEPROM_XMC1_HANDLE_PTR->data_ptr);
 948              	 .loc 2 695 0
 949 0014 2A4B     	 ldr r3,.L57
 950 0016 5B68     	 ldr r3,[r3,#4]
 951 0018 3B62     	 str r3,[r7,#32]
 696:../Dave/Generated/E_EEPROM_XMC1/e_eeprom_xmc1.c ****   user_block_index = E_EEPROM_XMC1_lGetUsrBlockIndex(block_number);
 952              	 .loc 2 696 0
 953 001a 0F23     	 mov r3,#15
 954 001c FB18     	 add r3,r7,r3
 955 001e 1B78     	 ldrb r3,[r3]
 956 0020 181C     	 mov r0,r3
 957 0022 FFF7FEFF 	 bl E_EEPROM_XMC1_lGetUsrBlockIndex
 958 0026 031C     	 mov r3,r0
 959 0028 FB61     	 str r3,[r7,#28]
 697:../Dave/Generated/E_EEPROM_XMC1/e_eeprom_xmc1.c ****   block_size = E_EEPROM_XMC1_HANDLE_PTR->block_config_ptr[user_block_index].size;
 960              	 .loc 2 697 0
 961 002a 254B     	 ldr r3,.L57
 962 002c 1A68     	 ldr r2,[r3]
 963 002e FB69     	 ldr r3,[r7,#28]
 964 0030 DB00     	 lsl r3,r3,#3
 965 0032 D318     	 add r3,r2,r3
 966 0034 5B68     	 ldr r3,[r3,#4]
 967 0036 BB61     	 str r3,[r7,#24]
 698:../Dave/Generated/E_EEPROM_XMC1/e_eeprom_xmc1.c ****   
 699:../Dave/Generated/E_EEPROM_XMC1/e_eeprom_xmc1.c ****   XMC_ASSERT("E_EEPROM_XMC1_GetPreviousData:Wrong Block Number", (user_block_index  !=
 700:../Dave/Generated/E_EEPROM_XMC1/e_eeprom_xmc1.c ****                                                                   E_EEPROM_XMC1_LOG_BLOCK_NOT_FOUND
 701:../Dave/Generated/E_EEPROM_XMC1/e_eeprom_xmc1.c ****   XMC_ASSERT("E_EEPROM_XMC1_GetPreviousData:Invalid Buffer Pointer", (data_buffer_ptr != NULL))
 702:../Dave/Generated/E_EEPROM_XMC1/e_eeprom_xmc1.c ****   
 703:../Dave/Generated/E_EEPROM_XMC1/e_eeprom_xmc1.c ****   /*Execute only if GC process is in IDLE state */
 704:../Dave/Generated/E_EEPROM_XMC1/e_eeprom_xmc1.c ****   if ((data_ptr->gc_state == E_EEPROM_XMC1_GC_IDLE) && (((uint32_t)offset + length) <= block_size))
 968              	 .loc 2 704 0
 969 0038 3A6A     	 ldr r2,[r7,#32]
 970 003a BA23     	 mov r3,#186
 971 003c 5B00     	 lsl r3,r3,#1
 972 003e D358     	 ldr r3,[r2,r3]
 973 0040 0A2B     	 cmp r3,#10
 974 0042 31D1     	 bne .L51
 975              	 .loc 2 704 0 is_stmt 0 discriminator 1
 976 0044 BA68     	 ldr r2,[r7,#8]
 977 0046 3B68     	 ldr r3,[r7]
 978 0048 D218     	 add r2,r2,r3
 979 004a BB69     	 ldr r3,[r7,#24]
 980 004c 9A42     	 cmp r2,r3
 981 004e 2BD8     	 bhi .L51
 705:../Dave/Generated/E_EEPROM_XMC1/e_eeprom_xmc1.c ****   {
 706:../Dave/Generated/E_EEPROM_XMC1/e_eeprom_xmc1.c ****     
 707:../Dave/Generated/E_EEPROM_XMC1/e_eeprom_xmc1.c ****     read_start_addr = E_EEPROM_XMC1_lGetPrevData(block_number);
 982              	 .loc 2 707 0 is_stmt 1
 983 0050 0F23     	 mov r3,#15
 984 0052 FB18     	 add r3,r7,r3
 985 0054 1B78     	 ldrb r3,[r3]
 986 0056 181C     	 mov r0,r3
 987 0058 FFF7FEFF 	 bl E_EEPROM_XMC1_lGetPrevData
 988 005c 031C     	 mov r3,r0
 989 005e 7B61     	 str r3,[r7,#20]
 708:../Dave/Generated/E_EEPROM_XMC1/e_eeprom_xmc1.c ****     
 709:../Dave/Generated/E_EEPROM_XMC1/e_eeprom_xmc1.c ****     if (read_start_addr != 0U )
 990              	 .loc 2 709 0
 991 0060 7B69     	 ldr r3,[r7,#20]
 992 0062 002B     	 cmp r3,#0
 993 0064 1AD0     	 beq .L52
 710:../Dave/Generated/E_EEPROM_XMC1/e_eeprom_xmc1.c ****     {
 711:../Dave/Generated/E_EEPROM_XMC1/e_eeprom_xmc1.c ****       data_ptr->read_start_address =  read_start_addr;
 994              	 .loc 2 711 0
 995 0066 3A6A     	 ldr r2,[r7,#32]
 996 0068 C623     	 mov r3,#198
 997 006a 5B00     	 lsl r3,r3,#1
 998 006c 7969     	 ldr r1,[r7,#20]
 999 006e D150     	 str r1,[r2,r3]
 712:../Dave/Generated/E_EEPROM_XMC1/e_eeprom_xmc1.c ****       
 713:../Dave/Generated/E_EEPROM_XMC1/e_eeprom_xmc1.c ****       /* Call local function to read the specified block of data from flash */
 714:../Dave/Generated/E_EEPROM_XMC1/e_eeprom_xmc1.c ****       status = (E_EEPROM_XMC1_OPERATION_STATUS_t)E_EEPROM_XMC1_lReadBlockContents(data_buffer_ptr, 
 1000              	 .loc 2 714 0
 1001 0070 7968     	 ldr r1,[r7,#4]
 1002 0072 3A68     	 ldr r2,[r7]
 1003 0074 BB68     	 ldr r3,[r7,#8]
 1004 0076 081C     	 mov r0,r1
 1005 0078 111C     	 mov r1,r2
 1006 007a 1A1C     	 mov r2,r3
 1007 007c FFF7FEFF 	 bl E_EEPROM_XMC1_lReadBlockContents
 1008 0080 021C     	 mov r2,r0
 1009 0082 2723     	 mov r3,#39
 1010 0084 FB18     	 add r3,r7,r3
 1011 0086 1A70     	 strb r2,[r3]
 715:../Dave/Generated/E_EEPROM_XMC1/e_eeprom_xmc1.c ****       if ((uint32_t)status != 0U)
 1012              	 .loc 2 715 0
 1013 0088 2723     	 mov r3,#39
 1014 008a FB18     	 add r3,r7,r3
 1015 008c 1B78     	 ldrb r3,[r3]
 1016 008e 002B     	 cmp r3,#0
 1017 0090 09D0     	 beq .L54
 716:../Dave/Generated/E_EEPROM_XMC1/e_eeprom_xmc1.c ****       {
 717:../Dave/Generated/E_EEPROM_XMC1/e_eeprom_xmc1.c ****          status = E_EEPROM_XMC1_OPERATION_STATUS_FAILURE;
 1018              	 .loc 2 717 0
 1019 0092 2723     	 mov r3,#39
 1020 0094 FB18     	 add r3,r7,r3
 1021 0096 0122     	 mov r2,#1
 1022 0098 1A70     	 strb r2,[r3]
 709:../Dave/Generated/E_EEPROM_XMC1/e_eeprom_xmc1.c ****     {
 1023              	 .loc 2 709 0
 1024 009a 09E0     	 b .L55
 1025              	.L52:
 718:../Dave/Generated/E_EEPROM_XMC1/e_eeprom_xmc1.c ****       }
 719:../Dave/Generated/E_EEPROM_XMC1/e_eeprom_xmc1.c ****     }
 720:../Dave/Generated/E_EEPROM_XMC1/e_eeprom_xmc1.c ****     else
 721:../Dave/Generated/E_EEPROM_XMC1/e_eeprom_xmc1.c ****     {
 722:../Dave/Generated/E_EEPROM_XMC1/e_eeprom_xmc1.c ****       status = E_EEPROM_XMC1_OPERATION_STATUS_INCONSISTENT_BLOCK;
 1026              	 .loc 2 722 0
 1027 009c 2723     	 mov r3,#39
 1028 009e FB18     	 add r3,r7,r3
 1029 00a0 0222     	 mov r2,#2
 1030 00a2 1A70     	 strb r2,[r3]
 709:../Dave/Generated/E_EEPROM_XMC1/e_eeprom_xmc1.c ****     {
 1031              	 .loc 2 709 0
 1032 00a4 04E0     	 b .L55
 1033              	.L54:
 709:../Dave/Generated/E_EEPROM_XMC1/e_eeprom_xmc1.c ****     {
 1034              	 .loc 2 709 0 is_stmt 0 discriminator 1
 1035 00a6 03E0     	 b .L55
 1036              	.L51:
 723:../Dave/Generated/E_EEPROM_XMC1/e_eeprom_xmc1.c ****     }
 724:../Dave/Generated/E_EEPROM_XMC1/e_eeprom_xmc1.c ****   }
 725:../Dave/Generated/E_EEPROM_XMC1/e_eeprom_xmc1.c ****   else
 726:../Dave/Generated/E_EEPROM_XMC1/e_eeprom_xmc1.c ****   {
 727:../Dave/Generated/E_EEPROM_XMC1/e_eeprom_xmc1.c ****     status = E_EEPROM_XMC1_OPERATION_STATUS_NOT_ALLOWED;
 1037              	 .loc 2 727 0 is_stmt 1
 1038 00a8 2723     	 mov r3,#39
 1039 00aa FB18     	 add r3,r7,r3
 1040 00ac 0522     	 mov r2,#5
 1041 00ae 1A70     	 strb r2,[r3]
 1042              	.L55:
 728:../Dave/Generated/E_EEPROM_XMC1/e_eeprom_xmc1.c ****   }
 729:../Dave/Generated/E_EEPROM_XMC1/e_eeprom_xmc1.c ****   
 730:../Dave/Generated/E_EEPROM_XMC1/e_eeprom_xmc1.c ****   return((E_EEPROM_XMC1_OPERATION_STATUS_t)status);
 1043              	 .loc 2 730 0
 1044 00b0 2723     	 mov r3,#39
 1045 00b2 FB18     	 add r3,r7,r3
 1046 00b4 1B78     	 ldrb r3,[r3]
 731:../Dave/Generated/E_EEPROM_XMC1/e_eeprom_xmc1.c **** }
 1047              	 .loc 2 731 0
 1048 00b6 181C     	 mov r0,r3
 1049 00b8 BD46     	 mov sp,r7
 1050 00ba 0AB0     	 add sp,sp,#40
 1051              	 
 1052 00bc 80BD     	 pop {r7,pc}
 1053              	.L58:
 1054 00be C046     	 .align 2
 1055              	.L57:
 1056 00c0 00000000 	 .word E_EEPROM_XMC1_0
 1057              	 .cfi_endproc
 1058              	.LFE56:
 1060              	 .section .text.E_EEPROM_XMC1_lGetPrevData,"ax",%progbits
 1061              	 .align 2
 1062              	 .code 16
 1063              	 .thumb_func
 1065              	E_EEPROM_XMC1_lGetPrevData:
 1066              	.LFB57:
 732:../Dave/Generated/E_EEPROM_XMC1/e_eeprom_xmc1.c **** 
 733:../Dave/Generated/E_EEPROM_XMC1/e_eeprom_xmc1.c **** 
 734:../Dave/Generated/E_EEPROM_XMC1/e_eeprom_xmc1.c **** /*
 735:../Dave/Generated/E_EEPROM_XMC1/e_eeprom_xmc1.c ****  ***********************************  Private Function Definitions  *******************************
 736:../Dave/Generated/E_EEPROM_XMC1/e_eeprom_xmc1.c ****  */
 737:../Dave/Generated/E_EEPROM_XMC1/e_eeprom_xmc1.c **** 
 738:../Dave/Generated/E_EEPROM_XMC1/e_eeprom_xmc1.c **** 
 739:../Dave/Generated/E_EEPROM_XMC1/e_eeprom_xmc1.c **** /*
 740:../Dave/Generated/E_EEPROM_XMC1/e_eeprom_xmc1.c ****  * Parameters(IN)  : block_number  - User block number / ID
 741:../Dave/Generated/E_EEPROM_XMC1/e_eeprom_xmc1.c ****  *
 742:../Dave/Generated/E_EEPROM_XMC1/e_eeprom_xmc1.c ****  * Return value    : uint32_t - Flash NVM_STATUS register value
 743:../Dave/Generated/E_EEPROM_XMC1/e_eeprom_xmc1.c ****  *
 744:../Dave/Generated/E_EEPROM_XMC1/e_eeprom_xmc1.c ****  * Description     : This function will traverse through the bank and find the previous copy of the
 745:../Dave/Generated/E_EEPROM_XMC1/e_eeprom_xmc1.c ****  */
 746:../Dave/Generated/E_EEPROM_XMC1/e_eeprom_xmc1.c **** static uint32_t E_EEPROM_XMC1_lGetPrevData(uint8_t block_number)
 747:../Dave/Generated/E_EEPROM_XMC1/e_eeprom_xmc1.c **** {
 1067              	 .loc 2 747 0
 1068              	 .cfi_startproc
 1069 0000 80B5     	 push {r7,lr}
 1070              	.LCFI33:
 1071              	 .cfi_def_cfa_offset 8
 1072              	 .cfi_offset 7,-8
 1073              	 .cfi_offset 14,-4
 1074 0002 88B0     	 sub sp,sp,#32
 1075              	.LCFI34:
 1076              	 .cfi_def_cfa_offset 40
 1077 0004 00AF     	 add r7,sp,#0
 1078              	.LCFI35:
 1079              	 .cfi_def_cfa_register 7
 1080 0006 021C     	 mov r2,r0
 1081 0008 FB1D     	 add r3,r7,#7
 1082 000a 1A70     	 strb r2,[r3]
 748:../Dave/Generated/E_EEPROM_XMC1/e_eeprom_xmc1.c ****   uint32_t block_size;
 749:../Dave/Generated/E_EEPROM_XMC1/e_eeprom_xmc1.c ****   uint32_t block_index;
 750:../Dave/Generated/E_EEPROM_XMC1/e_eeprom_xmc1.c ****   uint32_t data_sec_start_addr;
 751:../Dave/Generated/E_EEPROM_XMC1/e_eeprom_xmc1.c ****   uint32_t expected_block_count;
 752:../Dave/Generated/E_EEPROM_XMC1/e_eeprom_xmc1.c ****   uint32_t block_read_start_addr;
 753:../Dave/Generated/E_EEPROM_XMC1/e_eeprom_xmc1.c ****   E_EEPROM_XMC1_DATA_t *data_ptr;
 754:../Dave/Generated/E_EEPROM_XMC1/e_eeprom_xmc1.c ****   
 755:../Dave/Generated/E_EEPROM_XMC1/e_eeprom_xmc1.c ****   data_ptr = (E_EEPROM_XMC1_DATA_t*)(void*)(E_EEPROM_XMC1_HANDLE_PTR->data_ptr);
 1083              	 .loc 2 755 0
 1084 000c 364B     	 ldr r3,.L69
 1085 000e 5B68     	 ldr r3,[r3,#4]
 1086 0010 7B61     	 str r3,[r7,#20]
 756:../Dave/Generated/E_EEPROM_XMC1/e_eeprom_xmc1.c ****   data_sec_start_addr = data_ptr->next_free_block_addr;
 1087              	 .loc 2 756 0
 1088 0012 7B69     	 ldr r3,[r7,#20]
 1089 0014 DB6C     	 ldr r3,[r3,#76]
 1090 0016 FB61     	 str r3,[r7,#28]
 757:../Dave/Generated/E_EEPROM_XMC1/e_eeprom_xmc1.c ****   
 758:../Dave/Generated/E_EEPROM_XMC1/e_eeprom_xmc1.c ****   /* Get the block details */
 759:../Dave/Generated/E_EEPROM_XMC1/e_eeprom_xmc1.c ****   block_index = (uint32_t)E_EEPROM_XMC1_lGetUsrBlockIndex(block_number);
 1091              	 .loc 2 759 0
 1092 0018 FB1D     	 add r3,r7,#7
 1093 001a 1B78     	 ldrb r3,[r3]
 1094 001c 181C     	 mov r0,r3
 1095 001e FFF7FEFF 	 bl E_EEPROM_XMC1_lGetUsrBlockIndex
 1096 0022 031C     	 mov r3,r0
 1097 0024 3B61     	 str r3,[r7,#16]
 760:../Dave/Generated/E_EEPROM_XMC1/e_eeprom_xmc1.c ****   block_size = E_EEPROM_XMC1_HANDLE_PTR->block_config_ptr[block_index].size;
 1098              	 .loc 2 760 0
 1099 0026 304B     	 ldr r3,.L69
 1100 0028 1A68     	 ldr r2,[r3]
 1101 002a 3B69     	 ldr r3,[r7,#16]
 1102 002c DB00     	 lsl r3,r3,#3
 1103 002e D318     	 add r3,r2,r3
 1104 0030 5B68     	 ldr r3,[r3,#4]
 1105 0032 FB60     	 str r3,[r7,#12]
 761:../Dave/Generated/E_EEPROM_XMC1/e_eeprom_xmc1.c ****   expected_block_count = E_EEPROM_XMC1_lGetDFLASHPhysicalBlocks(block_size);
 1106              	 .loc 2 761 0
 1107 0034 FB68     	 ldr r3,[r7,#12]
 1108 0036 181C     	 mov r0,r3
 1109 0038 FFF7FEFF 	 bl E_EEPROM_XMC1_lGetDFLASHPhysicalBlocks
 1110 003c 031C     	 mov r3,r0
 1111 003e BB60     	 str r3,[r7,#8]
 762:../Dave/Generated/E_EEPROM_XMC1/e_eeprom_xmc1.c ****   
 763:../Dave/Generated/E_EEPROM_XMC1/e_eeprom_xmc1.c ****   /* Find the data bank starting address from current Bank to decide when to stop reading of blocks
 764:../Dave/Generated/E_EEPROM_XMC1/e_eeprom_xmc1.c ****   if (data_ptr->current_bank == 0U)
 1112              	 .loc 2 764 0
 1113 0040 7B69     	 ldr r3,[r7,#20]
 1114 0042 9B6B     	 ldr r3,[r3,#56]
 1115 0044 002B     	 cmp r3,#0
 1116 0046 02D1     	 bne .L60
 765:../Dave/Generated/E_EEPROM_XMC1/e_eeprom_xmc1.c ****   {
 766:../Dave/Generated/E_EEPROM_XMC1/e_eeprom_xmc1.c ****     data_sec_start_addr = E_EEPROM_XMC1_FLASH_BANK0_BASE + E_EEPROM_XMC1_DATA_BLOCK_OFFSET;
 1117              	 .loc 2 766 0
 1118 0048 284B     	 ldr r3,.L69+4
 1119 004a FB61     	 str r3,[r7,#28]
 1120 004c 01E0     	 b .L61
 1121              	.L60:
 767:../Dave/Generated/E_EEPROM_XMC1/e_eeprom_xmc1.c ****   }
 768:../Dave/Generated/E_EEPROM_XMC1/e_eeprom_xmc1.c ****   else
 769:../Dave/Generated/E_EEPROM_XMC1/e_eeprom_xmc1.c ****   {
 770:../Dave/Generated/E_EEPROM_XMC1/e_eeprom_xmc1.c ****     data_sec_start_addr = E_EEPROM_XMC1_FLASH_BANK1_BASE + E_EEPROM_XMC1_DATA_BLOCK_OFFSET;
 1122              	 .loc 2 770 0
 1123 004e 284B     	 ldr r3,.L69+8
 1124 0050 FB61     	 str r3,[r7,#28]
 1125              	.L61:
 771:../Dave/Generated/E_EEPROM_XMC1/e_eeprom_xmc1.c ****   }
 772:../Dave/Generated/E_EEPROM_XMC1/e_eeprom_xmc1.c ****   
 773:../Dave/Generated/E_EEPROM_XMC1/e_eeprom_xmc1.c ****   /* Load */
 774:../Dave/Generated/E_EEPROM_XMC1/e_eeprom_xmc1.c ****   block_read_start_addr = data_ptr->next_free_block_addr;
 1126              	 .loc 2 774 0
 1127 0052 7B69     	 ldr r3,[r7,#20]
 1128 0054 DB6C     	 ldr r3,[r3,#76]
 1129 0056 BB61     	 str r3,[r7,#24]
 775:../Dave/Generated/E_EEPROM_XMC1/e_eeprom_xmc1.c ****   block_read_start_addr = E_EEPROM_XMC1_lSearchBlockCopy(block_number, block_read_start_addr, data_
 1130              	 .loc 2 775 0
 1131 0058 FB1D     	 add r3,r7,#7
 1132 005a 1978     	 ldrb r1,[r3]
 1133 005c BA69     	 ldr r2,[r7,#24]
 1134 005e FB69     	 ldr r3,[r7,#28]
 1135 0060 081C     	 mov r0,r1
 1136 0062 111C     	 mov r1,r2
 1137 0064 1A1C     	 mov r2,r3
 1138 0066 FFF7FEFF 	 bl E_EEPROM_XMC1_lSearchBlockCopy
 1139 006a 031C     	 mov r3,r0
 1140 006c BB61     	 str r3,[r7,#24]
 776:../Dave/Generated/E_EEPROM_XMC1/e_eeprom_xmc1.c ****   
 777:../Dave/Generated/E_EEPROM_XMC1/e_eeprom_xmc1.c ****   if ((block_read_start_addr == 0U) || (block_read_start_addr <= data_sec_start_addr))
 1141              	 .loc 2 777 0
 1142 006e BB69     	 ldr r3,[r7,#24]
 1143 0070 002B     	 cmp r3,#0
 1144 0072 03D0     	 beq .L62
 1145              	 .loc 2 777 0 is_stmt 0 discriminator 1
 1146 0074 BA69     	 ldr r2,[r7,#24]
 1147 0076 FB69     	 ldr r3,[r7,#28]
 1148 0078 9A42     	 cmp r2,r3
 1149 007a 02D8     	 bhi .L63
 1150              	.L62:
 778:../Dave/Generated/E_EEPROM_XMC1/e_eeprom_xmc1.c ****   {
 779:../Dave/Generated/E_EEPROM_XMC1/e_eeprom_xmc1.c ****     block_read_start_addr = 0U;  /* No block exist*/
 1151              	 .loc 2 779 0 is_stmt 1
 1152 007c 0023     	 mov r3,#0
 1153 007e BB61     	 str r3,[r7,#24]
 1154 0080 2DE0     	 b .L64
 1155              	.L63:
 780:../Dave/Generated/E_EEPROM_XMC1/e_eeprom_xmc1.c ****   }
 781:../Dave/Generated/E_EEPROM_XMC1/e_eeprom_xmc1.c ****   else
 782:../Dave/Generated/E_EEPROM_XMC1/e_eeprom_xmc1.c ****   {
 783:../Dave/Generated/E_EEPROM_XMC1/e_eeprom_xmc1.c ****     block_read_start_addr = E_EEPROM_XMC1_lSearchBlockCopy(block_number,
 1156              	 .loc 2 783 0
 1157 0082 BB69     	 ldr r3,[r7,#24]
 1158 0084 103B     	 sub r3,r3,#16
 1159 0086 1A1C     	 mov r2,r3
 1160 0088 FB1D     	 add r3,r7,#7
 1161 008a 1978     	 ldrb r1,[r3]
 1162 008c FB69     	 ldr r3,[r7,#28]
 1163 008e 081C     	 mov r0,r1
 1164 0090 111C     	 mov r1,r2
 1165 0092 1A1C     	 mov r2,r3
 1166 0094 FFF7FEFF 	 bl E_EEPROM_XMC1_lSearchBlockCopy
 1167 0098 031C     	 mov r3,r0
 1168 009a BB61     	 str r3,[r7,#24]
 784:../Dave/Generated/E_EEPROM_XMC1/e_eeprom_xmc1.c ****                                                            (block_read_start_addr - E_EEPROM_XMC1_F
 785:../Dave/Generated/E_EEPROM_XMC1/e_eeprom_xmc1.c ****                                                            data_sec_start_addr);
 786:../Dave/Generated/E_EEPROM_XMC1/e_eeprom_xmc1.c ****     if ((block_read_start_addr == 0U) || (block_read_start_addr < data_sec_start_addr) )
 1169              	 .loc 2 786 0
 1170 009c BB69     	 ldr r3,[r7,#24]
 1171 009e 002B     	 cmp r3,#0
 1172 00a0 03D0     	 beq .L65
 1173              	 .loc 2 786 0 is_stmt 0 discriminator 1
 1174 00a2 BA69     	 ldr r2,[r7,#24]
 1175 00a4 FB69     	 ldr r3,[r7,#28]
 1176 00a6 9A42     	 cmp r2,r3
 1177 00a8 02D2     	 bcs .L66
 1178              	.L65:
 787:../Dave/Generated/E_EEPROM_XMC1/e_eeprom_xmc1.c ****     {
 788:../Dave/Generated/E_EEPROM_XMC1/e_eeprom_xmc1.c ****       block_read_start_addr = 0U;  /* No Previous copy of block exist*/
 1179              	 .loc 2 788 0 is_stmt 1
 1180 00aa 0023     	 mov r3,#0
 1181 00ac BB61     	 str r3,[r7,#24]
 1182 00ae 16E0     	 b .L64
 1183              	.L66:
 789:../Dave/Generated/E_EEPROM_XMC1/e_eeprom_xmc1.c ****     }
 790:../Dave/Generated/E_EEPROM_XMC1/e_eeprom_xmc1.c ****     else
 791:../Dave/Generated/E_EEPROM_XMC1/e_eeprom_xmc1.c ****     {
 792:../Dave/Generated/E_EEPROM_XMC1/e_eeprom_xmc1.c ****       if ((data_ptr->block_result.status.consistent != 1U) ||
 1184              	 .loc 2 792 0
 1185 00b0 7B69     	 ldr r3,[r7,#20]
 1186 00b2 3422     	 mov r2,#52
 1187 00b4 9B5C     	 ldrb r3,[r3,r2]
 1188 00b6 0222     	 mov r2,#2
 1189 00b8 1340     	 and r3,r2
 1190 00ba DBB2     	 uxtb r3,r3
 1191 00bc 002B     	 cmp r3,#0
 1192 00be 0CD0     	 beq .L67
 793:../Dave/Generated/E_EEPROM_XMC1/e_eeprom_xmc1.c ****         (data_ptr->block_result.block_count != expected_block_count) ||
 1193              	 .loc 2 793 0 discriminator 1
 1194 00c0 7B69     	 ldr r3,[r7,#20]
 1195 00c2 1A6B     	 ldr r2,[r3,#48]
 792:../Dave/Generated/E_EEPROM_XMC1/e_eeprom_xmc1.c ****         (data_ptr->block_result.block_count != expected_block_count) ||
 1196              	 .loc 2 792 0 discriminator 1
 1197 00c4 BB68     	 ldr r3,[r7,#8]
 1198 00c6 9A42     	 cmp r2,r3
 1199 00c8 07D1     	 bne .L67
 794:../Dave/Generated/E_EEPROM_XMC1/e_eeprom_xmc1.c ****         (data_ptr->block_result.status.valid != 1U))
 1200              	 .loc 2 794 0
 1201 00ca 7B69     	 ldr r3,[r7,#20]
 1202 00cc 3422     	 mov r2,#52
 1203 00ce 9B5C     	 ldrb r3,[r3,r2]
 1204 00d0 0122     	 mov r2,#1
 1205 00d2 1340     	 and r3,r2
 1206 00d4 DBB2     	 uxtb r3,r3
 793:../Dave/Generated/E_EEPROM_XMC1/e_eeprom_xmc1.c ****         (data_ptr->block_result.block_count != expected_block_count) ||
 1207              	 .loc 2 793 0
 1208 00d6 002B     	 cmp r3,#0
 1209 00d8 01D1     	 bne .L64
 1210              	.L67:
 795:../Dave/Generated/E_EEPROM_XMC1/e_eeprom_xmc1.c ****       {
 796:../Dave/Generated/E_EEPROM_XMC1/e_eeprom_xmc1.c ****         block_read_start_addr = 0U;  /* No Previous copy of block exist*/
 1211              	 .loc 2 796 0
 1212 00da 0023     	 mov r3,#0
 1213 00dc BB61     	 str r3,[r7,#24]
 1214              	.L64:
 797:../Dave/Generated/E_EEPROM_XMC1/e_eeprom_xmc1.c ****       }
 798:../Dave/Generated/E_EEPROM_XMC1/e_eeprom_xmc1.c ****     }
 799:../Dave/Generated/E_EEPROM_XMC1/e_eeprom_xmc1.c ****   }
 800:../Dave/Generated/E_EEPROM_XMC1/e_eeprom_xmc1.c ****   return (block_read_start_addr);
 1215              	 .loc 2 800 0
 1216 00de BB69     	 ldr r3,[r7,#24]
 801:../Dave/Generated/E_EEPROM_XMC1/e_eeprom_xmc1.c **** }
 1217              	 .loc 2 801 0
 1218 00e0 181C     	 mov r0,r3
 1219 00e2 BD46     	 mov sp,r7
 1220 00e4 08B0     	 add sp,sp,#32
 1221              	 
 1222 00e6 80BD     	 pop {r7,pc}
 1223              	.L70:
 1224              	 .align 2
 1225              	.L69:
 1226 00e8 00000000 	 .word E_EEPROM_XMC1_0
 1227 00ec 00210310 	 .word 268640512
 1228 00f0 00290310 	 .word 268642560
 1229              	 .cfi_endproc
 1230              	.LFE57:
 1232              	 .section .text.E_EEPROM_XMC1_lSearchBlockCopy,"ax",%progbits
 1233              	 .align 2
 1234              	 .code 16
 1235              	 .thumb_func
 1237              	E_EEPROM_XMC1_lSearchBlockCopy:
 1238              	.LFB58:
 802:../Dave/Generated/E_EEPROM_XMC1/e_eeprom_xmc1.c **** 
 803:../Dave/Generated/E_EEPROM_XMC1/e_eeprom_xmc1.c **** /*
 804:../Dave/Generated/E_EEPROM_XMC1/e_eeprom_xmc1.c ****  * Parameters(IN)  : block_number  - User block number / ID
 805:../Dave/Generated/E_EEPROM_XMC1/e_eeprom_xmc1.c ****  *
 806:../Dave/Generated/E_EEPROM_XMC1/e_eeprom_xmc1.c ****  * Return value    : uint32_t - Flash NVM_STATUS register value
 807:../Dave/Generated/E_EEPROM_XMC1/e_eeprom_xmc1.c ****  *
 808:../Dave/Generated/E_EEPROM_XMC1/e_eeprom_xmc1.c ****  * Description     : This function reads the block header bytes and compare the block number to fin
 809:../Dave/Generated/E_EEPROM_XMC1/e_eeprom_xmc1.c ****  */
 810:../Dave/Generated/E_EEPROM_XMC1/e_eeprom_xmc1.c **** static uint32_t E_EEPROM_XMC1_lSearchBlockCopy(uint8_t required_block_number,
 811:../Dave/Generated/E_EEPROM_XMC1/e_eeprom_xmc1.c ****                                                uint32_t read_addr,
 812:../Dave/Generated/E_EEPROM_XMC1/e_eeprom_xmc1.c ****                                                uint32_t data_sec_start_addr)
 813:../Dave/Generated/E_EEPROM_XMC1/e_eeprom_xmc1.c **** {
 1239              	 .loc 2 813 0
 1240              	 .cfi_startproc
 1241 0000 80B5     	 push {r7,lr}
 1242              	.LCFI36:
 1243              	 .cfi_def_cfa_offset 8
 1244              	 .cfi_offset 7,-8
 1245              	 .cfi_offset 14,-4
 1246 0002 8CB0     	 sub sp,sp,#48
 1247              	.LCFI37:
 1248              	 .cfi_def_cfa_offset 56
 1249 0004 00AF     	 add r7,sp,#0
 1250              	.LCFI38:
 1251              	 .cfi_def_cfa_register 7
 1252 0006 B960     	 str r1,[r7,#8]
 1253 0008 7A60     	 str r2,[r7,#4]
 1254 000a 0F23     	 mov r3,#15
 1255 000c FB18     	 add r3,r7,r3
 1256 000e 021C     	 add r2,r0,#0
 1257 0010 1A70     	 strb r2,[r3]
 814:../Dave/Generated/E_EEPROM_XMC1/e_eeprom_xmc1.c ****   uint32_t header_word;
 815:../Dave/Generated/E_EEPROM_XMC1/e_eeprom_xmc1.c ****   uint32_t block_count;
 816:../Dave/Generated/E_EEPROM_XMC1/e_eeprom_xmc1.c ****   uint8_t block_status;
 817:../Dave/Generated/E_EEPROM_XMC1/e_eeprom_xmc1.c ****   uint8_t read_block_number;
 818:../Dave/Generated/E_EEPROM_XMC1/e_eeprom_xmc1.c ****   uint32_t block_start_address;
 819:../Dave/Generated/E_EEPROM_XMC1/e_eeprom_xmc1.c ****   uint32_t is_all_blocks_clean;
 820:../Dave/Generated/E_EEPROM_XMC1/e_eeprom_xmc1.c ****   E_EEPROM_XMC1_DATA_t *data_ptr;
 821:../Dave/Generated/E_EEPROM_XMC1/e_eeprom_xmc1.c ****   E_EEPROM_XMC1_BLOCK_HEADER_t* block_header_ptr;
 822:../Dave/Generated/E_EEPROM_XMC1/e_eeprom_xmc1.c ****   
 823:../Dave/Generated/E_EEPROM_XMC1/e_eeprom_xmc1.c ****   data_ptr = (E_EEPROM_XMC1_DATA_t*)(void*)(E_EEPROM_XMC1_HANDLE_PTR->data_ptr);
 1258              	 .loc 2 823 0
 1259 0012 3A4B     	 ldr r3,.L82
 1260 0014 5B68     	 ldr r3,[r3,#4]
 1261 0016 3B62     	 str r3,[r7,#32]
 824:../Dave/Generated/E_EEPROM_XMC1/e_eeprom_xmc1.c ****   
 825:../Dave/Generated/E_EEPROM_XMC1/e_eeprom_xmc1.c ****   block_count = 0U;
 1262              	 .loc 2 825 0
 1263 0018 0023     	 mov r3,#0
 1264 001a FB62     	 str r3,[r7,#44]
 826:../Dave/Generated/E_EEPROM_XMC1/e_eeprom_xmc1.c ****   block_start_address = 0U;
 1265              	 .loc 2 826 0
 1266 001c 0023     	 mov r3,#0
 1267 001e BB62     	 str r3,[r7,#40]
 827:../Dave/Generated/E_EEPROM_XMC1/e_eeprom_xmc1.c ****   is_all_blocks_clean = 1U;
 1268              	 .loc 2 827 0
 1269 0020 0123     	 mov r3,#1
 1270 0022 7B62     	 str r3,[r7,#36]
 828:../Dave/Generated/E_EEPROM_XMC1/e_eeprom_xmc1.c ****   data_ptr->block_result.status.consistent = 0U;
 1271              	 .loc 2 828 0
 1272 0024 3B6A     	 ldr r3,[r7,#32]
 1273 0026 3422     	 mov r2,#52
 1274 0028 995C     	 ldrb r1,[r3,r2]
 1275 002a 0220     	 mov r0,#2
 1276 002c 8143     	 bic r1,r0
 1277 002e 9954     	 strb r1,[r3,r2]
 829:../Dave/Generated/E_EEPROM_XMC1/e_eeprom_xmc1.c ****   data_ptr->block_result.status.valid = 0U;
 1278              	 .loc 2 829 0
 1279 0030 3B6A     	 ldr r3,[r7,#32]
 1280 0032 3422     	 mov r2,#52
 1281 0034 995C     	 ldrb r1,[r3,r2]
 1282 0036 0120     	 mov r0,#1
 1283 0038 8143     	 bic r1,r0
 1284 003a 9954     	 strb r1,[r3,r2]
 830:../Dave/Generated/E_EEPROM_XMC1/e_eeprom_xmc1.c ****   data_ptr->block_result.block_count = 0U;
 1285              	 .loc 2 830 0
 1286 003c 3B6A     	 ldr r3,[r7,#32]
 1287 003e 0022     	 mov r2,#0
 1288 0040 1A63     	 str r2,[r3,#48]
 831:../Dave/Generated/E_EEPROM_XMC1/e_eeprom_xmc1.c ****   
 832:../Dave/Generated/E_EEPROM_XMC1/e_eeprom_xmc1.c ****   /* Loop until the first block address and check if any block number is matching the required bloc
 833:../Dave/Generated/E_EEPROM_XMC1/e_eeprom_xmc1.c ****   while ((data_sec_start_addr <= read_addr) && (block_start_address == 0U))
 1289              	 .loc 2 833 0
 1290 0042 4FE0     	 b .L72
 1291              	.L80:
 834:../Dave/Generated/E_EEPROM_XMC1/e_eeprom_xmc1.c ****   {
 835:../Dave/Generated/E_EEPROM_XMC1/e_eeprom_xmc1.c ****     /* Clear all error status flags before flash operation*/
 836:../Dave/Generated/E_EEPROM_XMC1/e_eeprom_xmc1.c ****     XMC_FLASH_ClearStatus();      
 1292              	 .loc 2 836 0
 1293 0044 FFF7FEFF 	 bl XMC_FLASH_ClearStatus
 837:../Dave/Generated/E_EEPROM_XMC1/e_eeprom_xmc1.c ****     
 838:../Dave/Generated/E_EEPROM_XMC1/e_eeprom_xmc1.c ****     /* Read the header word */
 839:../Dave/Generated/E_EEPROM_XMC1/e_eeprom_xmc1.c ****     header_word = E_EEPROM_XMC1_lReadSingleWord(read_addr);
 1294              	 .loc 2 839 0
 1295 0048 BB68     	 ldr r3,[r7,#8]
 1296 004a 181C     	 mov r0,r3
 1297 004c FFF7FEFF 	 bl E_EEPROM_XMC1_lReadSingleWord
 1298 0050 031C     	 mov r3,r0
 1299 0052 7B61     	 str r3,[r7,#20]
 840:../Dave/Generated/E_EEPROM_XMC1/e_eeprom_xmc1.c ****     
 841:../Dave/Generated/E_EEPROM_XMC1/e_eeprom_xmc1.c ****     block_header_ptr = (E_EEPROM_XMC1_BLOCK_HEADER_t*)(void *)(&header_word);
 1300              	 .loc 2 841 0
 1301 0054 1423     	 mov r3,#20
 1302 0056 FB18     	 add r3,r7,r3
 1303 0058 FB61     	 str r3,[r7,#28]
 842:../Dave/Generated/E_EEPROM_XMC1/e_eeprom_xmc1.c ****     read_block_number = block_header_ptr->block_number;
 1304              	 .loc 2 842 0
 1305 005a 1B23     	 mov r3,#27
 1306 005c FB18     	 add r3,r7,r3
 1307 005e FA69     	 ldr r2,[r7,#28]
 1308 0060 1278     	 ldrb r2,[r2]
 1309 0062 1A70     	 strb r2,[r3]
 843:../Dave/Generated/E_EEPROM_XMC1/e_eeprom_xmc1.c ****     block_status = block_header_ptr->status;
 1310              	 .loc 2 843 0
 1311 0064 1A23     	 mov r3,#26
 1312 0066 FB18     	 add r3,r7,r3
 1313 0068 FA69     	 ldr r2,[r7,#28]
 1314 006a 5278     	 ldrb r2,[r2,#1]
 1315 006c 1A70     	 strb r2,[r3]
 844:../Dave/Generated/E_EEPROM_XMC1/e_eeprom_xmc1.c ****     
 845:../Dave/Generated/E_EEPROM_XMC1/e_eeprom_xmc1.c ****     /*Check whether the block number is matching the required block number*/
 846:../Dave/Generated/E_EEPROM_XMC1/e_eeprom_xmc1.c ****     if (read_block_number == required_block_number)
 1316              	 .loc 2 846 0
 1317 006e 1B23     	 mov r3,#27
 1318 0070 FA18     	 add r2,r7,r3
 1319 0072 0F23     	 mov r3,#15
 1320 0074 FB18     	 add r3,r7,r3
 1321 0076 1278     	 ldrb r2,[r2]
 1322 0078 1B78     	 ldrb r3,[r3]
 1323 007a 9A42     	 cmp r2,r3
 1324 007c 2FD1     	 bne .L73
 847:../Dave/Generated/E_EEPROM_XMC1/e_eeprom_xmc1.c ****     {
 848:../Dave/Generated/E_EEPROM_XMC1/e_eeprom_xmc1.c ****       block_count++;
 1325              	 .loc 2 848 0
 1326 007e FB6A     	 ldr r3,[r7,#44]
 1327 0080 0133     	 add r3,r3,#1
 1328 0082 FB62     	 str r3,[r7,#44]
 849:../Dave/Generated/E_EEPROM_XMC1/e_eeprom_xmc1.c ****       
 850:../Dave/Generated/E_EEPROM_XMC1/e_eeprom_xmc1.c ****       /* Check if any ECC error in the header */
 851:../Dave/Generated/E_EEPROM_XMC1/e_eeprom_xmc1.c ****       if ( ( E_EEPROM_XMC1_lGetFlashStatus() & (uint32_t)XMC_FLASH_STATUS_ECC2_READ_ERROR ) != 0U )
 1329              	 .loc 2 851 0
 1330 0084 FFF7FEFF 	 bl E_EEPROM_XMC1_lGetFlashStatus
 1331 0088 021C     	 mov r2,r0
 1332 008a 2023     	 mov r3,#32
 1333 008c 1340     	 and r3,r2
 1334 008e 01D0     	 beq .L74
 852:../Dave/Generated/E_EEPROM_XMC1/e_eeprom_xmc1.c ****       {
 853:../Dave/Generated/E_EEPROM_XMC1/e_eeprom_xmc1.c ****         is_all_blocks_clean = 0U;
 1335              	 .loc 2 853 0
 1336 0090 0023     	 mov r3,#0
 1337 0092 7B62     	 str r3,[r7,#36]
 1338              	.L74:
 854:../Dave/Generated/E_EEPROM_XMC1/e_eeprom_xmc1.c ****       }
 855:../Dave/Generated/E_EEPROM_XMC1/e_eeprom_xmc1.c ****       /* Check if block header is of the starting block */
 856:../Dave/Generated/E_EEPROM_XMC1/e_eeprom_xmc1.c ****       if (block_status & E_EEPROM_XMC1_START_BIT)
 1339              	 .loc 2 856 0
 1340 0094 1A23     	 mov r3,#26
 1341 0096 FB18     	 add r3,r7,r3
 1342 0098 1B78     	 ldrb r3,[r3]
 1343 009a 5BB2     	 sxtb r3,r3
 1344 009c 002B     	 cmp r3,#0
 1345 009e 1ADA     	 bge .L75
 857:../Dave/Generated/E_EEPROM_XMC1/e_eeprom_xmc1.c ****       {
 858:../Dave/Generated/E_EEPROM_XMC1/e_eeprom_xmc1.c ****         if ( is_all_blocks_clean == 1U )
 1346              	 .loc 2 858 0
 1347 00a0 7B6A     	 ldr r3,[r7,#36]
 1348 00a2 012B     	 cmp r3,#1
 1349 00a4 05D1     	 bne .L76
 859:../Dave/Generated/E_EEPROM_XMC1/e_eeprom_xmc1.c ****         {
 860:../Dave/Generated/E_EEPROM_XMC1/e_eeprom_xmc1.c ****           data_ptr->block_result.status.consistent = 1U;
 1350              	 .loc 2 860 0
 1351 00a6 3B6A     	 ldr r3,[r7,#32]
 1352 00a8 3422     	 mov r2,#52
 1353 00aa 995C     	 ldrb r1,[r3,r2]
 1354 00ac 0220     	 mov r0,#2
 1355 00ae 0143     	 orr r1,r0
 1356 00b0 9954     	 strb r1,[r3,r2]
 1357              	.L76:
 861:../Dave/Generated/E_EEPROM_XMC1/e_eeprom_xmc1.c ****         }
 862:../Dave/Generated/E_EEPROM_XMC1/e_eeprom_xmc1.c **** 
 863:../Dave/Generated/E_EEPROM_XMC1/e_eeprom_xmc1.c ****         if (block_status & (uint8_t)E_EEPROM_XMC1_VALID_BIT)
 1358              	 .loc 2 863 0
 1359 00b2 1A23     	 mov r3,#26
 1360 00b4 FB18     	 add r3,r7,r3
 1361 00b6 1B78     	 ldrb r3,[r3]
 1362 00b8 4022     	 mov r2,#64
 1363 00ba 1340     	 and r3,r2
 1364 00bc 05D0     	 beq .L77
 864:../Dave/Generated/E_EEPROM_XMC1/e_eeprom_xmc1.c ****         {
 865:../Dave/Generated/E_EEPROM_XMC1/e_eeprom_xmc1.c ****           data_ptr->block_result.status.valid = 1U;
 1365              	 .loc 2 865 0
 1366 00be 3B6A     	 ldr r3,[r7,#32]
 1367 00c0 3422     	 mov r2,#52
 1368 00c2 995C     	 ldrb r1,[r3,r2]
 1369 00c4 0120     	 mov r0,#1
 1370 00c6 0143     	 orr r1,r0
 1371 00c8 9954     	 strb r1,[r3,r2]
 1372              	.L77:
 866:../Dave/Generated/E_EEPROM_XMC1/e_eeprom_xmc1.c ****         }
 867:../Dave/Generated/E_EEPROM_XMC1/e_eeprom_xmc1.c **** 
 868:../Dave/Generated/E_EEPROM_XMC1/e_eeprom_xmc1.c ****         data_ptr->block_result.block_count = block_count;
 1373              	 .loc 2 868 0
 1374 00ca 3B6A     	 ldr r3,[r7,#32]
 1375 00cc FA6A     	 ldr r2,[r7,#44]
 1376 00ce 1A63     	 str r2,[r3,#48]
 869:../Dave/Generated/E_EEPROM_XMC1/e_eeprom_xmc1.c ****         block_start_address = read_addr;
 1377              	 .loc 2 869 0
 1378 00d0 BB68     	 ldr r3,[r7,#8]
 1379 00d2 BB62     	 str r3,[r7,#40]
 1380 00d4 06E0     	 b .L72
 1381              	.L75:
 870:../Dave/Generated/E_EEPROM_XMC1/e_eeprom_xmc1.c ****       }
 871:../Dave/Generated/E_EEPROM_XMC1/e_eeprom_xmc1.c ****       else
 872:../Dave/Generated/E_EEPROM_XMC1/e_eeprom_xmc1.c ****       {
 873:../Dave/Generated/E_EEPROM_XMC1/e_eeprom_xmc1.c ****         read_addr -= E_EEPROM_XMC1_FLASH_BLOCK_SIZE;
 1382              	 .loc 2 873 0
 1383 00d6 BB68     	 ldr r3,[r7,#8]
 1384 00d8 103B     	 sub r3,r3,#16
 1385 00da BB60     	 str r3,[r7,#8]
 1386 00dc 02E0     	 b .L72
 1387              	.L73:
 874:../Dave/Generated/E_EEPROM_XMC1/e_eeprom_xmc1.c ****       }
 875:../Dave/Generated/E_EEPROM_XMC1/e_eeprom_xmc1.c ****     }
 876:../Dave/Generated/E_EEPROM_XMC1/e_eeprom_xmc1.c ****     else
 877:../Dave/Generated/E_EEPROM_XMC1/e_eeprom_xmc1.c ****     {
 878:../Dave/Generated/E_EEPROM_XMC1/e_eeprom_xmc1.c ****       read_addr -= E_EEPROM_XMC1_FLASH_BLOCK_SIZE;
 1388              	 .loc 2 878 0
 1389 00de BB68     	 ldr r3,[r7,#8]
 1390 00e0 103B     	 sub r3,r3,#16
 1391 00e2 BB60     	 str r3,[r7,#8]
 1392              	.L72:
 833:../Dave/Generated/E_EEPROM_XMC1/e_eeprom_xmc1.c ****   {
 1393              	 .loc 2 833 0
 1394 00e4 7A68     	 ldr r2,[r7,#4]
 1395 00e6 BB68     	 ldr r3,[r7,#8]
 1396 00e8 9A42     	 cmp r2,r3
 1397 00ea 02D8     	 bhi .L79
 833:../Dave/Generated/E_EEPROM_XMC1/e_eeprom_xmc1.c ****   {
 1398              	 .loc 2 833 0 is_stmt 0 discriminator 1
 1399 00ec BB6A     	 ldr r3,[r7,#40]
 1400 00ee 002B     	 cmp r3,#0
 1401 00f0 A8D0     	 beq .L80
 1402              	.L79:
 879:../Dave/Generated/E_EEPROM_XMC1/e_eeprom_xmc1.c ****     }
 880:../Dave/Generated/E_EEPROM_XMC1/e_eeprom_xmc1.c ****   }
 881:../Dave/Generated/E_EEPROM_XMC1/e_eeprom_xmc1.c ****   return(block_start_address);
 1403              	 .loc 2 881 0 is_stmt 1
 1404 00f2 BB6A     	 ldr r3,[r7,#40]
 882:../Dave/Generated/E_EEPROM_XMC1/e_eeprom_xmc1.c **** }
 1405              	 .loc 2 882 0
 1406 00f4 181C     	 mov r0,r3
 1407 00f6 BD46     	 mov sp,r7
 1408 00f8 0CB0     	 add sp,sp,#48
 1409              	 
 1410 00fa 80BD     	 pop {r7,pc}
 1411              	.L83:
 1412              	 .align 2
 1413              	.L82:
 1414 00fc 00000000 	 .word E_EEPROM_XMC1_0
 1415              	 .cfi_endproc
 1416              	.LFE58:
 1418              	 .section .text.E_EEPROM_XMC1_lInitGc,"ax",%progbits
 1419              	 .align 2
 1420              	 .code 16
 1421              	 .thumb_func
 1423              	E_EEPROM_XMC1_lInitGc:
 1424              	.LFB59:
 883:../Dave/Generated/E_EEPROM_XMC1/e_eeprom_xmc1.c **** 
 884:../Dave/Generated/E_EEPROM_XMC1/e_eeprom_xmc1.c **** /*
 885:../Dave/Generated/E_EEPROM_XMC1/e_eeprom_xmc1.c ****  * Parameters(IN)  : marker_dirty_state  - Dirty state
 886:../Dave/Generated/E_EEPROM_XMC1/e_eeprom_xmc1.c ****  *
 887:../Dave/Generated/E_EEPROM_XMC1/e_eeprom_xmc1.c ****  * Return value    : void
 888:../Dave/Generated/E_EEPROM_XMC1/e_eeprom_xmc1.c ****  *
 889:../Dave/Generated/E_EEPROM_XMC1/e_eeprom_xmc1.c ****  * Description     : This function shall detect if there was any interruption in the ongoing runnin
 890:../Dave/Generated/E_EEPROM_XMC1/e_eeprom_xmc1.c ****  *                   (Read/Write/GC). If yes, then this routine shall decide to run a state machine
 891:../Dave/Generated/E_EEPROM_XMC1/e_eeprom_xmc1.c ****  *                   emulation to normal state
 892:../Dave/Generated/E_EEPROM_XMC1/e_eeprom_xmc1.c ****  */
 893:../Dave/Generated/E_EEPROM_XMC1/e_eeprom_xmc1.c **** static void E_EEPROM_XMC1_lInitGc(const uint32_t marker_dirty_state)
 894:../Dave/Generated/E_EEPROM_XMC1/e_eeprom_xmc1.c **** {
 1425              	 .loc 2 894 0
 1426              	 .cfi_startproc
 1427 0000 80B5     	 push {r7,lr}
 1428              	.LCFI39:
 1429              	 .cfi_def_cfa_offset 8
 1430              	 .cfi_offset 7,-8
 1431              	 .cfi_offset 14,-4
 1432 0002 84B0     	 sub sp,sp,#16
 1433              	.LCFI40:
 1434              	 .cfi_def_cfa_offset 24
 1435 0004 00AF     	 add r7,sp,#0
 1436              	.LCFI41:
 1437              	 .cfi_def_cfa_register 7
 1438 0006 7860     	 str r0,[r7,#4]
 895:../Dave/Generated/E_EEPROM_XMC1/e_eeprom_xmc1.c ****   E_EEPROM_XMC1_DATA_t *data_ptr;
 896:../Dave/Generated/E_EEPROM_XMC1/e_eeprom_xmc1.c ****   data_ptr = (E_EEPROM_XMC1_DATA_t*)(void*)(E_EEPROM_XMC1_HANDLE_PTR->data_ptr);
 1439              	 .loc 2 896 0
 1440 0008 254B     	 ldr r3,.L89
 1441 000a 5B68     	 ldr r3,[r3,#4]
 1442 000c FB60     	 str r3,[r7,#12]
 897:../Dave/Generated/E_EEPROM_XMC1/e_eeprom_xmc1.c ****   
 898:../Dave/Generated/E_EEPROM_XMC1/e_eeprom_xmc1.c ****   if ( marker_dirty_state == E_EEPROM_XMC1_BOTH_BANKS_INVALID )  /* If both Bank state markers are 
 1443              	 .loc 2 898 0
 1444 000e 7B68     	 ldr r3,[r7,#4]
 1445 0010 032B     	 cmp r3,#3
 1446 0012 07D1     	 bne .L85
 899:../Dave/Generated/E_EEPROM_XMC1/e_eeprom_xmc1.c ****   {
 900:../Dave/Generated/E_EEPROM_XMC1/e_eeprom_xmc1.c ****     data_ptr->init_gc_state = E_EEPROM_XMC1_MB_DIRTY;
 1447              	 .loc 2 900 0
 1448 0014 FA68     	 ldr r2,[r7,#12]
 1449 0016 BC23     	 mov r3,#188
 1450 0018 5B00     	 lsl r3,r3,#1
 1451 001a DD21     	 mov r1,#221
 1452 001c D150     	 str r1,[r2,r3]
 901:../Dave/Generated/E_EEPROM_XMC1/e_eeprom_xmc1.c ****     E_EEPROM_XMC1_lInitllegalStateMachine();
 1453              	 .loc 2 901 0
 1454 001e FFF7FEFF 	 bl E_EEPROM_XMC1_lInitllegalStateMachine
 1455 0022 39E0     	 b .L84
 1456              	.L85:
 902:../Dave/Generated/E_EEPROM_XMC1/e_eeprom_xmc1.c ****   }
 903:../Dave/Generated/E_EEPROM_XMC1/e_eeprom_xmc1.c ****   else if ( marker_dirty_state == E_EEPROM_XMC1_BANK0_INVALID )  /* If Only Bank0 state marker is i
 1457              	 .loc 2 903 0
 1458 0024 7B68     	 ldr r3,[r7,#4]
 1459 0026 012B     	 cmp r3,#1
 1460 0028 18D1     	 bne .L87
 904:../Dave/Generated/E_EEPROM_XMC1/e_eeprom_xmc1.c ****   {
 905:../Dave/Generated/E_EEPROM_XMC1/e_eeprom_xmc1.c ****     data_ptr->init_gc_state &= E_EEPROM_XMC1_INIT_STATE_0F;
 1461              	 .loc 2 905 0
 1462 002a FA68     	 ldr r2,[r7,#12]
 1463 002c BC23     	 mov r3,#188
 1464 002e 5B00     	 lsl r3,r3,#1
 1465 0030 D358     	 ldr r3,[r2,r3]
 1466 0032 0F22     	 mov r2,#15
 1467 0034 1340     	 and r3,r2
 1468 0036 191C     	 mov r1,r3
 1469 0038 FA68     	 ldr r2,[r7,#12]
 1470 003a BC23     	 mov r3,#188
 1471 003c 5B00     	 lsl r3,r3,#1
 1472 003e D150     	 str r1,[r2,r3]
 906:../Dave/Generated/E_EEPROM_XMC1/e_eeprom_xmc1.c ****     data_ptr->init_gc_state |= E_EEPROM_XMC1_INIT_STATE_D0;
 1473              	 .loc 2 906 0
 1474 0040 FA68     	 ldr r2,[r7,#12]
 1475 0042 BC23     	 mov r3,#188
 1476 0044 5B00     	 lsl r3,r3,#1
 1477 0046 D358     	 ldr r3,[r2,r3]
 1478 0048 D022     	 mov r2,#208
 1479 004a 1A43     	 orr r2,r3
 1480 004c 111C     	 mov r1,r2
 1481 004e FA68     	 ldr r2,[r7,#12]
 1482 0050 BC23     	 mov r3,#188
 1483 0052 5B00     	 lsl r3,r3,#1
 1484 0054 D150     	 str r1,[r2,r3]
 907:../Dave/Generated/E_EEPROM_XMC1/e_eeprom_xmc1.c ****     E_EEPROM_XMC1_lInitDirtyStateMachine();
 1485              	 .loc 2 907 0
 1486 0056 FFF7FEFF 	 bl E_EEPROM_XMC1_lInitDirtyStateMachine
 1487 005a 1DE0     	 b .L84
 1488              	.L87:
 908:../Dave/Generated/E_EEPROM_XMC1/e_eeprom_xmc1.c ****   }
 909:../Dave/Generated/E_EEPROM_XMC1/e_eeprom_xmc1.c ****   else if ( marker_dirty_state == E_EEPROM_XMC1_BANK1_INVALID )  /* If Only Bank1 state marker is i
 1489              	 .loc 2 909 0
 1490 005c 7B68     	 ldr r3,[r7,#4]
 1491 005e 022B     	 cmp r3,#2
 1492 0060 18D1     	 bne .L88
 910:../Dave/Generated/E_EEPROM_XMC1/e_eeprom_xmc1.c ****   {
 911:../Dave/Generated/E_EEPROM_XMC1/e_eeprom_xmc1.c ****     data_ptr->init_gc_state &= E_EEPROM_XMC1_INIT_STATE_F0;
 1493              	 .loc 2 911 0
 1494 0062 FA68     	 ldr r2,[r7,#12]
 1495 0064 BC23     	 mov r3,#188
 1496 0066 5B00     	 lsl r3,r3,#1
 1497 0068 D358     	 ldr r3,[r2,r3]
 1498 006a F022     	 mov r2,#240
 1499 006c 1340     	 and r3,r2
 1500 006e 191C     	 mov r1,r3
 1501 0070 FA68     	 ldr r2,[r7,#12]
 1502 0072 BC23     	 mov r3,#188
 1503 0074 5B00     	 lsl r3,r3,#1
 1504 0076 D150     	 str r1,[r2,r3]
 912:../Dave/Generated/E_EEPROM_XMC1/e_eeprom_xmc1.c ****     data_ptr->init_gc_state |= E_EEPROM_XMC1_INIT_STATE_0D;
 1505              	 .loc 2 912 0
 1506 0078 FA68     	 ldr r2,[r7,#12]
 1507 007a BC23     	 mov r3,#188
 1508 007c 5B00     	 lsl r3,r3,#1
 1509 007e D358     	 ldr r3,[r2,r3]
 1510 0080 0D22     	 mov r2,#13
 1511 0082 1A43     	 orr r2,r3
 1512 0084 111C     	 mov r1,r2
 1513 0086 FA68     	 ldr r2,[r7,#12]
 1514 0088 BC23     	 mov r3,#188
 1515 008a 5B00     	 lsl r3,r3,#1
 1516 008c D150     	 str r1,[r2,r3]
 913:../Dave/Generated/E_EEPROM_XMC1/e_eeprom_xmc1.c ****     E_EEPROM_XMC1_lInitDirtyStateMachine();
 1517              	 .loc 2 913 0
 1518 008e FFF7FEFF 	 bl E_EEPROM_XMC1_lInitDirtyStateMachine
 1519 0092 01E0     	 b .L84
 1520              	.L88:
 914:../Dave/Generated/E_EEPROM_XMC1/e_eeprom_xmc1.c ****   }
 915:../Dave/Generated/E_EEPROM_XMC1/e_eeprom_xmc1.c ****   else                                      /* If both Bank state markers have valid state */
 916:../Dave/Generated/E_EEPROM_XMC1/e_eeprom_xmc1.c ****   {
 917:../Dave/Generated/E_EEPROM_XMC1/e_eeprom_xmc1.c ****     E_EEPROM_XMC1_lInitNormalStateMachine();
 1521              	 .loc 2 917 0
 1522 0094 FFF7FEFF 	 bl E_EEPROM_XMC1_lInitNormalStateMachine
 1523              	.L84:
 918:../Dave/Generated/E_EEPROM_XMC1/e_eeprom_xmc1.c ****   }
 919:../Dave/Generated/E_EEPROM_XMC1/e_eeprom_xmc1.c **** }
 1524              	 .loc 2 919 0
 1525 0098 BD46     	 mov sp,r7
 1526 009a 04B0     	 add sp,sp,#16
 1527              	 
 1528 009c 80BD     	 pop {r7,pc}
 1529              	.L90:
 1530 009e C046     	 .align 2
 1531              	.L89:
 1532 00a0 00000000 	 .word E_EEPROM_XMC1_0
 1533              	 .cfi_endproc
 1534              	.LFE59:
 1536              	 .section .text.E_EEPROM_XMC1_lInitllegalStateMachine,"ax",%progbits
 1537              	 .align 2
 1538              	 .code 16
 1539              	 .thumb_func
 1541              	E_EEPROM_XMC1_lInitllegalStateMachine:
 1542              	.LFB60:
 920:../Dave/Generated/E_EEPROM_XMC1/e_eeprom_xmc1.c **** 
 921:../Dave/Generated/E_EEPROM_XMC1/e_eeprom_xmc1.c **** /*
 922:../Dave/Generated/E_EEPROM_XMC1/e_eeprom_xmc1.c ****  * Parameters(IN)  : void
 923:../Dave/Generated/E_EEPROM_XMC1/e_eeprom_xmc1.c ****  *
 924:../Dave/Generated/E_EEPROM_XMC1/e_eeprom_xmc1.c ****  * Return value    : void
 925:../Dave/Generated/E_EEPROM_XMC1/e_eeprom_xmc1.c ****  *
 926:../Dave/Generated/E_EEPROM_XMC1/e_eeprom_xmc1.c ****  * Description     : This function shall erase all flash and start from fresh depending upon the us
 927:../Dave/Generated/E_EEPROM_XMC1/e_eeprom_xmc1.c ****  */
 928:../Dave/Generated/E_EEPROM_XMC1/e_eeprom_xmc1.c **** static void E_EEPROM_XMC1_lInitllegalStateMachine(void)
 929:../Dave/Generated/E_EEPROM_XMC1/e_eeprom_xmc1.c **** {
 1543              	 .loc 2 929 0
 1544              	 .cfi_startproc
 1545 0000 80B5     	 push {r7,lr}
 1546              	.LCFI42:
 1547              	 .cfi_def_cfa_offset 8
 1548              	 .cfi_offset 7,-8
 1549              	 .cfi_offset 14,-4
 1550 0002 82B0     	 sub sp,sp,#8
 1551              	.LCFI43:
 1552              	 .cfi_def_cfa_offset 16
 1553 0004 00AF     	 add r7,sp,#0
 1554              	.LCFI44:
 1555              	 .cfi_def_cfa_register 7
 930:../Dave/Generated/E_EEPROM_XMC1/e_eeprom_xmc1.c ****   E_EEPROM_XMC1_DATA_t *data_ptr;
 931:../Dave/Generated/E_EEPROM_XMC1/e_eeprom_xmc1.c ****   data_ptr = (E_EEPROM_XMC1_DATA_t*)(void*)(E_EEPROM_XMC1_HANDLE_PTR->data_ptr);
 1556              	 .loc 2 931 0
 1557 0006 0B4B     	 ldr r3,.L94
 1558 0008 5B68     	 ldr r3,[r3,#4]
 1559 000a 7B60     	 str r3,[r7,#4]
 932:../Dave/Generated/E_EEPROM_XMC1/e_eeprom_xmc1.c ****   
 933:../Dave/Generated/E_EEPROM_XMC1/e_eeprom_xmc1.c ****   /*
 934:../Dave/Generated/E_EEPROM_XMC1/e_eeprom_xmc1.c ****    * Any state apart from the normal states is considered as Illegal state. Next operation = Start 
 935:../Dave/Generated/E_EEPROM_XMC1/e_eeprom_xmc1.c ****    * (Only if the configuration option Erase all is 1U) IF Configuration Option is 0U, Next Operati
 936:../Dave/Generated/E_EEPROM_XMC1/e_eeprom_xmc1.c ****    */
 937:../Dave/Generated/E_EEPROM_XMC1/e_eeprom_xmc1.c ****   if (E_EEPROM_XMC1_HANDLE_PTR->erase_all_auto_recovery == 1U)
 1560              	 .loc 2 937 0
 1561 000c 094B     	 ldr r3,.L94
 1562 000e 9B7A     	 ldrb r3,[r3,#10]
 1563 0010 012B     	 cmp r3,#1
 1564 0012 07D1     	 bne .L92
 938:../Dave/Generated/E_EEPROM_XMC1/e_eeprom_xmc1.c ****   {
 939:../Dave/Generated/E_EEPROM_XMC1/e_eeprom_xmc1.c ****     /* Change the current Bank to Bank0 */
 940:../Dave/Generated/E_EEPROM_XMC1/e_eeprom_xmc1.c ****     data_ptr->current_bank = 0U;
 1565              	 .loc 2 940 0
 1566 0014 7B68     	 ldr r3,[r7,#4]
 1567 0016 0022     	 mov r2,#0
 1568 0018 9A63     	 str r2,[r3,#56]
 941:../Dave/Generated/E_EEPROM_XMC1/e_eeprom_xmc1.c ****     E_EEPROM_XMC1_lInitGcNormalStates( E_EEPROM_XMC1_PREPFLASH_FF, 1U);
 1569              	 .loc 2 941 0
 1570 001a 0120     	 mov r0,#1
 1571 001c 0121     	 mov r1,#1
 1572 001e FFF7FEFF 	 bl E_EEPROM_XMC1_lInitGcNormalStates
 1573 0022 04E0     	 b .L91
 1574              	.L92:
 942:../Dave/Generated/E_EEPROM_XMC1/e_eeprom_xmc1.c ****   }
 943:../Dave/Generated/E_EEPROM_XMC1/e_eeprom_xmc1.c ****   else
 944:../Dave/Generated/E_EEPROM_XMC1/e_eeprom_xmc1.c ****   {
 945:../Dave/Generated/E_EEPROM_XMC1/e_eeprom_xmc1.c ****     data_ptr->gc_state = E_EEPROM_XMC1_GC_FAIL;
 1575              	 .loc 2 945 0
 1576 0024 7A68     	 ldr r2,[r7,#4]
 1577 0026 BA23     	 mov r3,#186
 1578 0028 5B00     	 lsl r3,r3,#1
 1579 002a 0921     	 mov r1,#9
 1580 002c D150     	 str r1,[r2,r3]
 1581              	.L91:
 946:../Dave/Generated/E_EEPROM_XMC1/e_eeprom_xmc1.c ****   }
 947:../Dave/Generated/E_EEPROM_XMC1/e_eeprom_xmc1.c **** }
 1582              	 .loc 2 947 0
 1583 002e BD46     	 mov sp,r7
 1584 0030 02B0     	 add sp,sp,#8
 1585              	 
 1586 0032 80BD     	 pop {r7,pc}
 1587              	.L95:
 1588              	 .align 2
 1589              	.L94:
 1590 0034 00000000 	 .word E_EEPROM_XMC1_0
 1591              	 .cfi_endproc
 1592              	.LFE60:
 1594              	 .section .text.E_EEPROM_XMC1_lInitDirtyStateMachine,"ax",%progbits
 1595              	 .align 2
 1596              	 .code 16
 1597              	 .thumb_func
 1599              	E_EEPROM_XMC1_lInitDirtyStateMachine:
 1600              	.LFB61:
 948:../Dave/Generated/E_EEPROM_XMC1/e_eeprom_xmc1.c **** 
 949:../Dave/Generated/E_EEPROM_XMC1/e_eeprom_xmc1.c **** /*
 950:../Dave/Generated/E_EEPROM_XMC1/e_eeprom_xmc1.c ****  * Parameters(IN)  : void
 951:../Dave/Generated/E_EEPROM_XMC1/e_eeprom_xmc1.c ****  *
 952:../Dave/Generated/E_EEPROM_XMC1/e_eeprom_xmc1.c ****  * Return value   : void
 953:../Dave/Generated/E_EEPROM_XMC1/e_eeprom_xmc1.c ****  *
 954:../Dave/Generated/E_EEPROM_XMC1/e_eeprom_xmc1.c ****  * Description    : This function shall address the dirty state recovery mechanism by erasing and r
 955:../Dave/Generated/E_EEPROM_XMC1/e_eeprom_xmc1.c ****  */
 956:../Dave/Generated/E_EEPROM_XMC1/e_eeprom_xmc1.c **** static void E_EEPROM_XMC1_lInitDirtyStateMachine(void)
 957:../Dave/Generated/E_EEPROM_XMC1/e_eeprom_xmc1.c **** {
 1601              	 .loc 2 957 0
 1602              	 .cfi_startproc
 1603 0000 80B5     	 push {r7,lr}
 1604              	.LCFI45:
 1605              	 .cfi_def_cfa_offset 8
 1606              	 .cfi_offset 7,-8
 1607              	 .cfi_offset 14,-4
 1608 0002 82B0     	 sub sp,sp,#8
 1609              	.LCFI46:
 1610              	 .cfi_def_cfa_offset 16
 1611 0004 00AF     	 add r7,sp,#0
 1612              	.LCFI47:
 1613              	 .cfi_def_cfa_register 7
 958:../Dave/Generated/E_EEPROM_XMC1/e_eeprom_xmc1.c ****   E_EEPROM_XMC1_DATA_t *data_ptr;
 959:../Dave/Generated/E_EEPROM_XMC1/e_eeprom_xmc1.c ****   data_ptr = (E_EEPROM_XMC1_DATA_t*)(void*)(E_EEPROM_XMC1_HANDLE_PTR->data_ptr);
 1614              	 .loc 2 959 0
 1615 0006 274B     	 ldr r3,.L106
 1616 0008 5B68     	 ldr r3,[r3,#4]
 1617 000a 7B60     	 str r3,[r7,#4]
 960:../Dave/Generated/E_EEPROM_XMC1/e_eeprom_xmc1.c ****   switch (data_ptr->init_gc_state)
 1618              	 .loc 2 960 0
 1619 000c 7A68     	 ldr r2,[r7,#4]
 1620 000e BC23     	 mov r3,#188
 1621 0010 5B00     	 lsl r3,r3,#1
 1622 0012 D358     	 ldr r3,[r2,r3]
 1623 0014 AD2B     	 cmp r3,#173
 1624 0016 1AD0     	 beq .L98
 1625 0018 04D8     	 bhi .L99
 1626 001a 0D2B     	 cmp r3,#13
 1627 001c 29D0     	 beq .L100
 1628 001e 2D2B     	 cmp r3,#45
 1629 0020 07D0     	 beq .L101
 1630 0022 38E0     	 b .L97
 1631              	.L99:
 1632 0024 D22B     	 cmp r3,#210
 1633 0026 0BD0     	 beq .L102
 1634 0028 DA2B     	 cmp r3,#218
 1635 002a 19D0     	 beq .L103
 1636 002c D02B     	 cmp r3,#208
 1637 002e 29D0     	 beq .L104
 1638 0030 31E0     	 b .L97
 1639              	.L101:
 961:../Dave/Generated/E_EEPROM_XMC1/e_eeprom_xmc1.c ****   {
 962:../Dave/Generated/E_EEPROM_XMC1/e_eeprom_xmc1.c ****     case E_EEPROM_XMC1_INIT_STATE_2D:
 963:../Dave/Generated/E_EEPROM_XMC1/e_eeprom_xmc1.c ****       /* Change the current Bank to Bank0 and recover from the dirty state to 2E  */
 964:../Dave/Generated/E_EEPROM_XMC1/e_eeprom_xmc1.c ****       data_ptr->current_bank = 0U;
 1640              	 .loc 2 964 0
 1641 0032 7B68     	 ldr r3,[r7,#4]
 1642 0034 0022     	 mov r2,#0
 1643 0036 9A63     	 str r2,[r3,#56]
 965:../Dave/Generated/E_EEPROM_XMC1/e_eeprom_xmc1.c ****       /* Transition states : 2D -> 2F -> 2E */
 966:../Dave/Generated/E_EEPROM_XMC1/e_eeprom_xmc1.c ****       E_EEPROM_XMC1_lErasedDirtyStateRecovery( E_EEPROM_XMC1_END_ERASE_OFFSET );
 1644              	 .loc 2 966 0
 1645 0038 3020     	 mov r0,#48
 1646 003a FFF7FEFF 	 bl E_EEPROM_XMC1_lErasedDirtyStateRecovery
 967:../Dave/Generated/E_EEPROM_XMC1/e_eeprom_xmc1.c ****       break;
 1647              	 .loc 2 967 0
 1648 003e 2DE0     	 b .L96
 1649              	.L102:
 968:../Dave/Generated/E_EEPROM_XMC1/e_eeprom_xmc1.c ****     case E_EEPROM_XMC1_INIT_STATE_D2:
 969:../Dave/Generated/E_EEPROM_XMC1/e_eeprom_xmc1.c ****       /* Change the current Bank to Bank1 and recover from the dirty state to E2 */
 970:../Dave/Generated/E_EEPROM_XMC1/e_eeprom_xmc1.c ****       data_ptr->current_bank = 1U;
 1650              	 .loc 2 970 0
 1651 0040 7B68     	 ldr r3,[r7,#4]
 1652 0042 0122     	 mov r2,#1
 1653 0044 9A63     	 str r2,[r3,#56]
 971:../Dave/Generated/E_EEPROM_XMC1/e_eeprom_xmc1.c ****       /* Transition states : D2 -> F2 -> E2 */
 972:../Dave/Generated/E_EEPROM_XMC1/e_eeprom_xmc1.c ****       E_EEPROM_XMC1_lErasedDirtyStateRecovery( E_EEPROM_XMC1_END_ERASE_OFFSET );
 1654              	 .loc 2 972 0
 1655 0046 3020     	 mov r0,#48
 1656 0048 FFF7FEFF 	 bl E_EEPROM_XMC1_lErasedDirtyStateRecovery
 973:../Dave/Generated/E_EEPROM_XMC1/e_eeprom_xmc1.c ****       break;
 1657              	 .loc 2 973 0
 1658 004c 26E0     	 b .L96
 1659              	.L98:
 974:../Dave/Generated/E_EEPROM_XMC1/e_eeprom_xmc1.c ****     case E_EEPROM_XMC1_INIT_STATE_AD:
 975:../Dave/Generated/E_EEPROM_XMC1/e_eeprom_xmc1.c ****       /* Change the current Bank to Bank0 and recover from the dirty state to 2E */
 976:../Dave/Generated/E_EEPROM_XMC1/e_eeprom_xmc1.c ****       data_ptr->current_bank = 0U;
 1660              	 .loc 2 976 0
 1661 004e 7B68     	 ldr r3,[r7,#4]
 1662 0050 0022     	 mov r2,#0
 1663 0052 9A63     	 str r2,[r3,#56]
 977:../Dave/Generated/E_EEPROM_XMC1/e_eeprom_xmc1.c ****       /* Transition states : AD -> A0 -> GC PROCESS -> 2E */
 978:../Dave/Generated/E_EEPROM_XMC1/e_eeprom_xmc1.c ****       E_EEPROM_XMC1_lCopyProcessDirtyStateRecovery( E_EEPROM_XMC1_COPY_COMPLETED ,
 1664              	 .loc 2 978 0
 1665 0054 0020     	 mov r0,#0
 1666 0056 0721     	 mov r1,#7
 1667 0058 0122     	 mov r2,#1
 1668 005a FFF7FEFF 	 bl E_EEPROM_XMC1_lCopyProcessDirtyStateRecovery
 979:../Dave/Generated/E_EEPROM_XMC1/e_eeprom_xmc1.c ****       E_EEPROM_XMC1_GC_NEXT_BANK_VALID , 1U);
 980:../Dave/Generated/E_EEPROM_XMC1/e_eeprom_xmc1.c ****       break;
 1669              	 .loc 2 980 0
 1670 005e 1DE0     	 b .L96
 1671              	.L103:
 981:../Dave/Generated/E_EEPROM_XMC1/e_eeprom_xmc1.c ****     case E_EEPROM_XMC1_INIT_STATE_DA:
 982:../Dave/Generated/E_EEPROM_XMC1/e_eeprom_xmc1.c ****       /* Change the current Bank to Bank1  and recover from the dirty state to E2*/
 983:../Dave/Generated/E_EEPROM_XMC1/e_eeprom_xmc1.c ****       data_ptr->current_bank = 1U;
 1672              	 .loc 2 983 0
 1673 0060 7B68     	 ldr r3,[r7,#4]
 1674 0062 0122     	 mov r2,#1
 1675 0064 9A63     	 str r2,[r3,#56]
 984:../Dave/Generated/E_EEPROM_XMC1/e_eeprom_xmc1.c ****       /* Transition states : DA -> 0A -> GC PROCESS -> E2 */
 985:../Dave/Generated/E_EEPROM_XMC1/e_eeprom_xmc1.c ****       E_EEPROM_XMC1_lCopyProcessDirtyStateRecovery( E_EEPROM_XMC1_COPY_COMPLETED ,
 1676              	 .loc 2 985 0
 1677 0066 0020     	 mov r0,#0
 1678 0068 0721     	 mov r1,#7
 1679 006a 0122     	 mov r2,#1
 1680 006c FFF7FEFF 	 bl E_EEPROM_XMC1_lCopyProcessDirtyStateRecovery
 986:../Dave/Generated/E_EEPROM_XMC1/e_eeprom_xmc1.c ****       E_EEPROM_XMC1_GC_NEXT_BANK_VALID , 1U);
 987:../Dave/Generated/E_EEPROM_XMC1/e_eeprom_xmc1.c ****       break;
 1681              	 .loc 2 987 0
 1682 0070 14E0     	 b .L96
 1683              	.L100:
 988:../Dave/Generated/E_EEPROM_XMC1/e_eeprom_xmc1.c ****     case E_EEPROM_XMC1_INIT_STATE_0D:
 989:../Dave/Generated/E_EEPROM_XMC1/e_eeprom_xmc1.c ****       /* Change the current Bank to Bank1 and recover from the dirty state to E2 */
 990:../Dave/Generated/E_EEPROM_XMC1/e_eeprom_xmc1.c ****       data_ptr->current_bank = 1U;
 1684              	 .loc 2 990 0
 1685 0072 7B68     	 ldr r3,[r7,#4]
 1686 0074 0122     	 mov r2,#1
 1687 0076 9A63     	 str r2,[r3,#56]
 991:../Dave/Generated/E_EEPROM_XMC1/e_eeprom_xmc1.c ****       /* Transition states : 0D -> 02 -> GC PROCESS -> E2 */
 992:../Dave/Generated/E_EEPROM_XMC1/e_eeprom_xmc1.c ****       E_EEPROM_XMC1_lCopyProcessDirtyStateRecovery( E_EEPROM_XMC1_VALID_STATE ,
 1688              	 .loc 2 992 0
 1689 0078 2020     	 mov r0,#32
 1690 007a 0321     	 mov r1,#3
 1691 007c 0022     	 mov r2,#0
 1692 007e FFF7FEFF 	 bl E_EEPROM_XMC1_lCopyProcessDirtyStateRecovery
 993:../Dave/Generated/E_EEPROM_XMC1/e_eeprom_xmc1.c ****       E_EEPROM_XMC1_GC_ERASE_PREV_BANK , 0U);
 994:../Dave/Generated/E_EEPROM_XMC1/e_eeprom_xmc1.c ****       break;
 1693              	 .loc 2 994 0
 1694 0082 0BE0     	 b .L96
 1695              	.L104:
 995:../Dave/Generated/E_EEPROM_XMC1/e_eeprom_xmc1.c ****     case E_EEPROM_XMC1_INIT_STATE_D0:
 996:../Dave/Generated/E_EEPROM_XMC1/e_eeprom_xmc1.c ****       /* Change the current Bank to Bank0 and recover from the dirty state to 2E */
 997:../Dave/Generated/E_EEPROM_XMC1/e_eeprom_xmc1.c ****       data_ptr->current_bank = 0U;
 1696              	 .loc 2 997 0
 1697 0084 7B68     	 ldr r3,[r7,#4]
 1698 0086 0022     	 mov r2,#0
 1699 0088 9A63     	 str r2,[r3,#56]
 998:../Dave/Generated/E_EEPROM_XMC1/e_eeprom_xmc1.c ****       /* Transition states : D0 -> 20 -> GC PROCESS -> 2E */
 999:../Dave/Generated/E_EEPROM_XMC1/e_eeprom_xmc1.c ****       E_EEPROM_XMC1_lCopyProcessDirtyStateRecovery( E_EEPROM_XMC1_VALID_STATE ,
 1700              	 .loc 2 999 0
 1701 008a 2020     	 mov r0,#32
 1702 008c 0321     	 mov r1,#3
 1703 008e 0022     	 mov r2,#0
 1704 0090 FFF7FEFF 	 bl E_EEPROM_XMC1_lCopyProcessDirtyStateRecovery
1000:../Dave/Generated/E_EEPROM_XMC1/e_eeprom_xmc1.c ****       E_EEPROM_XMC1_GC_ERASE_PREV_BANK , 0U);
1001:../Dave/Generated/E_EEPROM_XMC1/e_eeprom_xmc1.c ****       break;
 1705              	 .loc 2 1001 0
 1706 0094 02E0     	 b .L96
 1707              	.L97:
1002:../Dave/Generated/E_EEPROM_XMC1/e_eeprom_xmc1.c ****     default:
1003:../Dave/Generated/E_EEPROM_XMC1/e_eeprom_xmc1.c ****       /* Any state apart from the normal states is considered as Illegal state */
1004:../Dave/Generated/E_EEPROM_XMC1/e_eeprom_xmc1.c ****       /* Transition states : Illegal -> PREPARE DFLASH -> 2E */
1005:../Dave/Generated/E_EEPROM_XMC1/e_eeprom_xmc1.c ****       E_EEPROM_XMC1_lInitllegalStateMachine();
 1708              	 .loc 2 1005 0
 1709 0096 FFF7FEFF 	 bl E_EEPROM_XMC1_lInitllegalStateMachine
1006:../Dave/Generated/E_EEPROM_XMC1/e_eeprom_xmc1.c ****       break;
 1710              	 .loc 2 1006 0
 1711 009a C046     	 mov r8,r8
 1712              	.L96:
1007:../Dave/Generated/E_EEPROM_XMC1/e_eeprom_xmc1.c ****   }
1008:../Dave/Generated/E_EEPROM_XMC1/e_eeprom_xmc1.c **** }
 1713              	 .loc 2 1008 0
 1714 009c BD46     	 mov sp,r7
 1715 009e 02B0     	 add sp,sp,#8
 1716              	 
 1717 00a0 80BD     	 pop {r7,pc}
 1718              	.L107:
 1719 00a2 C046     	 .align 2
 1720              	.L106:
 1721 00a4 00000000 	 .word E_EEPROM_XMC1_0
 1722              	 .cfi_endproc
 1723              	.LFE61:
 1725              	 .section .text.E_EEPROM_XMC1_lInitNormalStateMachine,"ax",%progbits
 1726              	 .align 2
 1727              	 .code 16
 1728              	 .thumb_func
 1730              	E_EEPROM_XMC1_lInitNormalStateMachine:
 1731              	.LFB62:
1009:../Dave/Generated/E_EEPROM_XMC1/e_eeprom_xmc1.c **** 
1010:../Dave/Generated/E_EEPROM_XMC1/e_eeprom_xmc1.c **** /*
1011:../Dave/Generated/E_EEPROM_XMC1/e_eeprom_xmc1.c **** * Parameters(IN)  : void
1012:../Dave/Generated/E_EEPROM_XMC1/e_eeprom_xmc1.c **** *
1013:../Dave/Generated/E_EEPROM_XMC1/e_eeprom_xmc1.c **** * Return value   : void
1014:../Dave/Generated/E_EEPROM_XMC1/e_eeprom_xmc1.c **** *
1015:../Dave/Generated/E_EEPROM_XMC1/e_eeprom_xmc1.c **** * Description    : Check which normal bank state machine process has executed.
1016:../Dave/Generated/E_EEPROM_XMC1/e_eeprom_xmc1.c **** */
1017:../Dave/Generated/E_EEPROM_XMC1/e_eeprom_xmc1.c **** static void E_EEPROM_XMC1_lInitNormalStateMachine(void)
1018:../Dave/Generated/E_EEPROM_XMC1/e_eeprom_xmc1.c **** {
 1732              	 .loc 2 1018 0
 1733              	 .cfi_startproc
 1734 0000 80B5     	 push {r7,lr}
 1735              	.LCFI48:
 1736              	 .cfi_def_cfa_offset 8
 1737              	 .cfi_offset 7,-8
 1738              	 .cfi_offset 14,-4
 1739 0002 00AF     	 add r7,sp,#0
 1740              	.LCFI49:
 1741              	 .cfi_def_cfa_register 7
1019:../Dave/Generated/E_EEPROM_XMC1/e_eeprom_xmc1.c ****   /* Check if the state matches with any of the normal marker states with active bank as bank-0*/
1020:../Dave/Generated/E_EEPROM_XMC1/e_eeprom_xmc1.c ****   if (E_EEPROM_XMC1_lInitBank0NormalStateMachine() == 0U)
 1742              	 .loc 2 1020 0
 1743 0004 FFF7FEFF 	 bl E_EEPROM_XMC1_lInitBank0NormalStateMachine
 1744 0008 031E     	 sub r3,r0,#0
 1745 000a 09D1     	 bne .L108
1021:../Dave/Generated/E_EEPROM_XMC1/e_eeprom_xmc1.c ****   {
1022:../Dave/Generated/E_EEPROM_XMC1/e_eeprom_xmc1.c ****     /* Check if the state matches with any of the normal marker states with active bank as bank-1*/
1023:../Dave/Generated/E_EEPROM_XMC1/e_eeprom_xmc1.c ****     if (E_EEPROM_XMC1_lInitBank1NormalStateMachine() == 0U)
 1746              	 .loc 2 1023 0
 1747 000c FFF7FEFF 	 bl E_EEPROM_XMC1_lInitBank1NormalStateMachine
 1748 0010 031E     	 sub r3,r0,#0
 1749 0012 05D1     	 bne .L108
1024:../Dave/Generated/E_EEPROM_XMC1/e_eeprom_xmc1.c ****     {
1025:../Dave/Generated/E_EEPROM_XMC1/e_eeprom_xmc1.c ****       /* Check if the state matches with any other intermediate states from where a recover is poss
1026:../Dave/Generated/E_EEPROM_XMC1/e_eeprom_xmc1.c ****       if (E_EEPROM_XMC1_lInitOtherNormalStateMachine() == 0U)
 1750              	 .loc 2 1026 0
 1751 0014 FFF7FEFF 	 bl E_EEPROM_XMC1_lInitOtherNormalStateMachine
 1752 0018 031E     	 sub r3,r0,#0
 1753 001a 01D1     	 bne .L108
1027:../Dave/Generated/E_EEPROM_XMC1/e_eeprom_xmc1.c ****       {
1028:../Dave/Generated/E_EEPROM_XMC1/e_eeprom_xmc1.c ****         /* If no matches found then go to illegal state and try to recover by erasing complete DFLA
1029:../Dave/Generated/E_EEPROM_XMC1/e_eeprom_xmc1.c ****         E_EEPROM_XMC1_lInitllegalStateMachine();
 1754              	 .loc 2 1029 0
 1755 001c FFF7FEFF 	 bl E_EEPROM_XMC1_lInitllegalStateMachine
 1756              	.L108:
1030:../Dave/Generated/E_EEPROM_XMC1/e_eeprom_xmc1.c ****       }
1031:../Dave/Generated/E_EEPROM_XMC1/e_eeprom_xmc1.c ****     }
1032:../Dave/Generated/E_EEPROM_XMC1/e_eeprom_xmc1.c ****   }
1033:../Dave/Generated/E_EEPROM_XMC1/e_eeprom_xmc1.c **** }
 1757              	 .loc 2 1033 0
 1758 0020 BD46     	 mov sp,r7
 1759              	 
 1760 0022 80BD     	 pop {r7,pc}
 1761              	 .cfi_endproc
 1762              	.LFE62:
 1764              	 .section .text.E_EEPROM_XMC1_lInitBank0NormalStateMachine,"ax",%progbits
 1765              	 .align 2
 1766              	 .code 16
 1767              	 .thumb_func
 1769              	E_EEPROM_XMC1_lInitBank0NormalStateMachine:
 1770              	.LFB63:
1034:../Dave/Generated/E_EEPROM_XMC1/e_eeprom_xmc1.c **** 
1035:../Dave/Generated/E_EEPROM_XMC1/e_eeprom_xmc1.c **** /*
1036:../Dave/Generated/E_EEPROM_XMC1/e_eeprom_xmc1.c **** * Parameters(IN)  : void
1037:../Dave/Generated/E_EEPROM_XMC1/e_eeprom_xmc1.c **** *
1038:../Dave/Generated/E_EEPROM_XMC1/e_eeprom_xmc1.c **** * Return value    : uint32_t : ( 1= state_found / 0 = State not found )
1039:../Dave/Generated/E_EEPROM_XMC1/e_eeprom_xmc1.c **** *
1040:../Dave/Generated/E_EEPROM_XMC1/e_eeprom_xmc1.c **** * Description     : Execute bank 0 state machine process and return the found states.
1041:../Dave/Generated/E_EEPROM_XMC1/e_eeprom_xmc1.c **** */
1042:../Dave/Generated/E_EEPROM_XMC1/e_eeprom_xmc1.c **** static uint32_t E_EEPROM_XMC1_lInitBank0NormalStateMachine(void)
1043:../Dave/Generated/E_EEPROM_XMC1/e_eeprom_xmc1.c **** {
 1771              	 .loc 2 1043 0
 1772              	 .cfi_startproc
 1773 0000 80B5     	 push {r7,lr}
 1774              	.LCFI50:
 1775              	 .cfi_def_cfa_offset 8
 1776              	 .cfi_offset 7,-8
 1777              	 .cfi_offset 14,-4
 1778 0002 82B0     	 sub sp,sp,#8
 1779              	.LCFI51:
 1780              	 .cfi_def_cfa_offset 16
 1781 0004 00AF     	 add r7,sp,#0
 1782              	.LCFI52:
 1783              	 .cfi_def_cfa_register 7
1044:../Dave/Generated/E_EEPROM_XMC1/e_eeprom_xmc1.c ****   uint32_t state_found;
1045:../Dave/Generated/E_EEPROM_XMC1/e_eeprom_xmc1.c ****   E_EEPROM_XMC1_DATA_t *data_ptr;
1046:../Dave/Generated/E_EEPROM_XMC1/e_eeprom_xmc1.c ****   data_ptr = (E_EEPROM_XMC1_DATA_t*)(void*)(E_EEPROM_XMC1_HANDLE_PTR->data_ptr);
 1784              	 .loc 2 1046 0
 1785 0006 234B     	 ldr r3,.L120
 1786 0008 5B68     	 ldr r3,[r3,#4]
 1787 000a 3B60     	 str r3,[r7]
1047:../Dave/Generated/E_EEPROM_XMC1/e_eeprom_xmc1.c ****   
1048:../Dave/Generated/E_EEPROM_XMC1/e_eeprom_xmc1.c ****   state_found = 1U;
 1788              	 .loc 2 1048 0
 1789 000c 0123     	 mov r3,#1
 1790 000e 7B60     	 str r3,[r7,#4]
1049:../Dave/Generated/E_EEPROM_XMC1/e_eeprom_xmc1.c ****   
1050:../Dave/Generated/E_EEPROM_XMC1/e_eeprom_xmc1.c ****   switch (data_ptr->init_gc_state)
 1791              	 .loc 2 1050 0
 1792 0010 3A68     	 ldr r2,[r7]
 1793 0012 BC23     	 mov r3,#188
 1794 0014 5B00     	 lsl r3,r3,#1
 1795 0016 D358     	 ldr r3,[r2,r3]
 1796 0018 2E2B     	 cmp r3,#46
 1797 001a 0AD0     	 beq .L112
 1798 001c 04D8     	 bhi .L113
 1799 001e 202B     	 cmp r3,#32
 1800 0020 1FD0     	 beq .L114
 1801 0022 2A2B     	 cmp r3,#42
 1802 0024 0DD0     	 beq .L115
 1803 0026 2CE0     	 b .L111
 1804              	.L113:
 1805 0028 2F2B     	 cmp r3,#47
 1806 002a 22D0     	 beq .L116
 1807 002c A02B     	 cmp r3,#160
 1808 002e 10D0     	 beq .L117
 1809 0030 27E0     	 b .L111
 1810              	.L112:
1051:../Dave/Generated/E_EEPROM_XMC1/e_eeprom_xmc1.c ****   {
1052:../Dave/Generated/E_EEPROM_XMC1/e_eeprom_xmc1.c ****     /*
1053:../Dave/Generated/E_EEPROM_XMC1/e_eeprom_xmc1.c ****      * Normal Data write in Bank-0 interrupted (2E), Next step = Cache Update and get ready to acce
1054:../Dave/Generated/E_EEPROM_XMC1/e_eeprom_xmc1.c ****      * Transition states : Nothing
1055:../Dave/Generated/E_EEPROM_XMC1/e_eeprom_xmc1.c ****      */
1056:../Dave/Generated/E_EEPROM_XMC1/e_eeprom_xmc1.c ****     case E_EEPROM_XMC1_INIT_NORMAL1:
1057:../Dave/Generated/E_EEPROM_XMC1/e_eeprom_xmc1.c ****     data_ptr->current_bank = 0U;
 1811              	 .loc 2 1057 0
 1812 0032 3B68     	 ldr r3,[r7]
 1813 0034 0022     	 mov r2,#0
 1814 0036 9A63     	 str r2,[r3,#56]
1058:../Dave/Generated/E_EEPROM_XMC1/e_eeprom_xmc1.c ****       E_EEPROM_XMC1_lInitGcNormalStates( E_EEPROM_XMC1_GC_IDLE, E_EEPROM_XMC1_EXECUTE_CACHE_UPDATE)
 1815              	 .loc 2 1058 0
 1816 0038 0A20     	 mov r0,#10
 1817 003a 0021     	 mov r1,#0
 1818 003c FFF7FEFF 	 bl E_EEPROM_XMC1_lInitGcNormalStates
1059:../Dave/Generated/E_EEPROM_XMC1/e_eeprom_xmc1.c ****       break;
 1819              	 .loc 2 1059 0
 1820 0040 22E0     	 b .L118
 1821              	.L115:
1060:../Dave/Generated/E_EEPROM_XMC1/e_eeprom_xmc1.c ****     
1061:../Dave/Generated/E_EEPROM_XMC1/e_eeprom_xmc1.c ****     /*
1062:../Dave/Generated/E_EEPROM_XMC1/e_eeprom_xmc1.c ****      * Data copy from Bank0 to Bank1 interrupted (2A), Next step = Erasing Bank-1 and restart copy 
1063:../Dave/Generated/E_EEPROM_XMC1/e_eeprom_xmc1.c ****      * Transition states : (2A) -> ERASE_BANK0 (2F) -> 2E -> GC_PROCESS (2A -> 0A -> 20 -> F2 -> E2
1064:../Dave/Generated/E_EEPROM_XMC1/e_eeprom_xmc1.c ****      */
1065:../Dave/Generated/E_EEPROM_XMC1/e_eeprom_xmc1.c ****     case E_EEPROM_XMC1_INIT_DATA_COPY1:
1066:../Dave/Generated/E_EEPROM_XMC1/e_eeprom_xmc1.c ****       data_ptr->current_bank = 0U;
 1822              	 .loc 2 1066 0
 1823 0042 3B68     	 ldr r3,[r7]
 1824 0044 0022     	 mov r2,#0
 1825 0046 9A63     	 str r2,[r3,#56]
1067:../Dave/Generated/E_EEPROM_XMC1/e_eeprom_xmc1.c ****       E_EEPROM_XMC1_lInitGcDataCopyState( E_EEPROM_XMC1_GC_REQUESTED, E_EEPROM_XMC1_END_ERASE_OFFSE
 1826              	 .loc 2 1067 0
 1827 0048 0420     	 mov r0,#4
 1828 004a 3021     	 mov r1,#48
 1829 004c FFF7FEFF 	 bl E_EEPROM_XMC1_lInitGcDataCopyState
1068:../Dave/Generated/E_EEPROM_XMC1/e_eeprom_xmc1.c ****       break;
 1830              	 .loc 2 1068 0
 1831 0050 1AE0     	 b .L118
 1832              	.L117:
1069:../Dave/Generated/E_EEPROM_XMC1/e_eeprom_xmc1.c ****     
1070:../Dave/Generated/E_EEPROM_XMC1/e_eeprom_xmc1.c ****     /*
1071:../Dave/Generated/E_EEPROM_XMC1/e_eeprom_xmc1.c ****      * Interrupted after copy completion from Bank1 to Bank0 (A0),Next step = Writing Valid state i
1072:../Dave/Generated/E_EEPROM_XMC1/e_eeprom_xmc1.c ****      * Transition states : (A0) -> (20) -> GC_PROCESS (2F -> 2E)
1073:../Dave/Generated/E_EEPROM_XMC1/e_eeprom_xmc1.c ****      */
1074:../Dave/Generated/E_EEPROM_XMC1/e_eeprom_xmc1.c ****     case E_EEPROM_XMC1_INIT_COPY_DONE1:
1075:../Dave/Generated/E_EEPROM_XMC1/e_eeprom_xmc1.c ****       data_ptr->current_bank = 0U;
 1833              	 .loc 2 1075 0
 1834 0052 3B68     	 ldr r3,[r7]
 1835 0054 0022     	 mov r2,#0
 1836 0056 9A63     	 str r2,[r3,#56]
1076:../Dave/Generated/E_EEPROM_XMC1/e_eeprom_xmc1.c ****       E_EEPROM_XMC1_lInitGcNormalStates( E_EEPROM_XMC1_GC_NEXT_BANK_VALID, E_EEPROM_XMC1_EXECUTE_GC
 1837              	 .loc 2 1076 0
 1838 0058 0720     	 mov r0,#7
 1839 005a 0221     	 mov r1,#2
 1840 005c FFF7FEFF 	 bl E_EEPROM_XMC1_lInitGcNormalStates
1077:../Dave/Generated/E_EEPROM_XMC1/e_eeprom_xmc1.c ****       break;
 1841              	 .loc 2 1077 0
 1842 0060 12E0     	 b .L118
 1843              	.L114:
1078:../Dave/Generated/E_EEPROM_XMC1/e_eeprom_xmc1.c ****     
1079:../Dave/Generated/E_EEPROM_XMC1/e_eeprom_xmc1.c ****     /*
1080:../Dave/Generated/E_EEPROM_XMC1/e_eeprom_xmc1.c ****      * Interrupted after writing valid state to Bank0 (20), Next step = Erase of old redundant Bank
1081:../Dave/Generated/E_EEPROM_XMC1/e_eeprom_xmc1.c ****      * Transition states : (20) -> (2F) -> GC_PROCESS (2E)
1082:../Dave/Generated/E_EEPROM_XMC1/e_eeprom_xmc1.c ****      */
1083:../Dave/Generated/E_EEPROM_XMC1/e_eeprom_xmc1.c ****     case E_EEPROM_XMC1_INIT_NEXT_VALID1:
1084:../Dave/Generated/E_EEPROM_XMC1/e_eeprom_xmc1.c ****       data_ptr->current_bank = 0U;
 1844              	 .loc 2 1084 0
 1845 0062 3B68     	 ldr r3,[r7]
 1846 0064 0022     	 mov r2,#0
 1847 0066 9A63     	 str r2,[r3,#56]
1085:../Dave/Generated/E_EEPROM_XMC1/e_eeprom_xmc1.c ****       E_EEPROM_XMC1_lInitGcNormalStates( E_EEPROM_XMC1_GC_ERASE_PREV_BANK, E_EEPROM_XMC1_EXECUTE_GC
 1848              	 .loc 2 1085 0
 1849 0068 0320     	 mov r0,#3
 1850 006a 0221     	 mov r1,#2
 1851 006c FFF7FEFF 	 bl E_EEPROM_XMC1_lInitGcNormalStates
1086:../Dave/Generated/E_EEPROM_XMC1/e_eeprom_xmc1.c ****       break;
 1852              	 .loc 2 1086 0
 1853 0070 0AE0     	 b .L118
 1854              	.L116:
1087:../Dave/Generated/E_EEPROM_XMC1/e_eeprom_xmc1.c ****     
1088:../Dave/Generated/E_EEPROM_XMC1/e_eeprom_xmc1.c ****     /*
1089:../Dave/Generated/E_EEPROM_XMC1/e_eeprom_xmc1.c ****      * Interrupted after erase of old bank completed(2F), Next step = Mark erased Bank-1 with Forma
1090:../Dave/Generated/E_EEPROM_XMC1/e_eeprom_xmc1.c ****      * Transition states : (2F) -> GC_PROCESS (2E)
1091:../Dave/Generated/E_EEPROM_XMC1/e_eeprom_xmc1.c ****      */
1092:../Dave/Generated/E_EEPROM_XMC1/e_eeprom_xmc1.c ****     case E_EEPROM_XMC1_INIT_END_ERASE1:
1093:../Dave/Generated/E_EEPROM_XMC1/e_eeprom_xmc1.c ****       data_ptr->current_bank = 0U;
 1855              	 .loc 2 1093 0
 1856 0072 3B68     	 ldr r3,[r7]
 1857 0074 0022     	 mov r2,#0
 1858 0076 9A63     	 str r2,[r3,#56]
1094:../Dave/Generated/E_EEPROM_XMC1/e_eeprom_xmc1.c ****       E_EEPROM_XMC1_lInitGcNormalStates( E_EEPROM_XMC1_GC_MARK_END_ERASE1, E_EEPROM_XMC1_EXECUTE_GC
 1859              	 .loc 2 1094 0
 1860 0078 0820     	 mov r0,#8
 1861 007a 0221     	 mov r1,#2
 1862 007c FFF7FEFF 	 bl E_EEPROM_XMC1_lInitGcNormalStates
1095:../Dave/Generated/E_EEPROM_XMC1/e_eeprom_xmc1.c ****       break;
 1863              	 .loc 2 1095 0
 1864 0080 02E0     	 b .L118
 1865              	.L111:
1096:../Dave/Generated/E_EEPROM_XMC1/e_eeprom_xmc1.c ****     
1097:../Dave/Generated/E_EEPROM_XMC1/e_eeprom_xmc1.c ****     default:
1098:../Dave/Generated/E_EEPROM_XMC1/e_eeprom_xmc1.c ****       state_found = 0U;
 1866              	 .loc 2 1098 0
 1867 0082 0023     	 mov r3,#0
 1868 0084 7B60     	 str r3,[r7,#4]
1099:../Dave/Generated/E_EEPROM_XMC1/e_eeprom_xmc1.c ****       break;
 1869              	 .loc 2 1099 0
 1870 0086 C046     	 mov r8,r8
 1871              	.L118:
1100:../Dave/Generated/E_EEPROM_XMC1/e_eeprom_xmc1.c ****   }
1101:../Dave/Generated/E_EEPROM_XMC1/e_eeprom_xmc1.c ****   return (state_found);
 1872              	 .loc 2 1101 0
 1873 0088 7B68     	 ldr r3,[r7,#4]
1102:../Dave/Generated/E_EEPROM_XMC1/e_eeprom_xmc1.c **** }
 1874              	 .loc 2 1102 0
 1875 008a 181C     	 mov r0,r3
 1876 008c BD46     	 mov sp,r7
 1877 008e 02B0     	 add sp,sp,#8
 1878              	 
 1879 0090 80BD     	 pop {r7,pc}
 1880              	.L121:
 1881 0092 C046     	 .align 2
 1882              	.L120:
 1883 0094 00000000 	 .word E_EEPROM_XMC1_0
 1884              	 .cfi_endproc
 1885              	.LFE63:
 1887              	 .section .text.E_EEPROM_XMC1_lInitBank1NormalStateMachine,"ax",%progbits
 1888              	 .align 2
 1889              	 .code 16
 1890              	 .thumb_func
 1892              	E_EEPROM_XMC1_lInitBank1NormalStateMachine:
 1893              	.LFB64:
1103:../Dave/Generated/E_EEPROM_XMC1/e_eeprom_xmc1.c **** 
1104:../Dave/Generated/E_EEPROM_XMC1/e_eeprom_xmc1.c **** /*
1105:../Dave/Generated/E_EEPROM_XMC1/e_eeprom_xmc1.c **** * Parameters(IN)  : void
1106:../Dave/Generated/E_EEPROM_XMC1/e_eeprom_xmc1.c **** *
1107:../Dave/Generated/E_EEPROM_XMC1/e_eeprom_xmc1.c **** * Return value    : uint32_t : ( 1= state_found / 0 = State not found )
1108:../Dave/Generated/E_EEPROM_XMC1/e_eeprom_xmc1.c **** *
1109:../Dave/Generated/E_EEPROM_XMC1/e_eeprom_xmc1.c **** * Description     : Execute bank 1 state machine process and return the found states.
1110:../Dave/Generated/E_EEPROM_XMC1/e_eeprom_xmc1.c **** */
1111:../Dave/Generated/E_EEPROM_XMC1/e_eeprom_xmc1.c **** static uint32_t E_EEPROM_XMC1_lInitBank1NormalStateMachine(void)
1112:../Dave/Generated/E_EEPROM_XMC1/e_eeprom_xmc1.c **** {
 1894              	 .loc 2 1112 0
 1895              	 .cfi_startproc
 1896 0000 80B5     	 push {r7,lr}
 1897              	.LCFI53:
 1898              	 .cfi_def_cfa_offset 8
 1899              	 .cfi_offset 7,-8
 1900              	 .cfi_offset 14,-4
 1901 0002 82B0     	 sub sp,sp,#8
 1902              	.LCFI54:
 1903              	 .cfi_def_cfa_offset 16
 1904 0004 00AF     	 add r7,sp,#0
 1905              	.LCFI55:
 1906              	 .cfi_def_cfa_register 7
1113:../Dave/Generated/E_EEPROM_XMC1/e_eeprom_xmc1.c ****   uint32_t state_found;
1114:../Dave/Generated/E_EEPROM_XMC1/e_eeprom_xmc1.c ****   E_EEPROM_XMC1_DATA_t *data_ptr;
1115:../Dave/Generated/E_EEPROM_XMC1/e_eeprom_xmc1.c ****   data_ptr = (E_EEPROM_XMC1_DATA_t*)(void*)(E_EEPROM_XMC1_HANDLE_PTR->data_ptr);
 1907              	 .loc 2 1115 0
 1908 0006 234B     	 ldr r3,.L132
 1909 0008 5B68     	 ldr r3,[r3,#4]
 1910 000a 3B60     	 str r3,[r7]
1116:../Dave/Generated/E_EEPROM_XMC1/e_eeprom_xmc1.c ****   
1117:../Dave/Generated/E_EEPROM_XMC1/e_eeprom_xmc1.c ****   state_found = 1U;
 1911              	 .loc 2 1117 0
 1912 000c 0123     	 mov r3,#1
 1913 000e 7B60     	 str r3,[r7,#4]
1118:../Dave/Generated/E_EEPROM_XMC1/e_eeprom_xmc1.c ****   
1119:../Dave/Generated/E_EEPROM_XMC1/e_eeprom_xmc1.c ****   switch (data_ptr->init_gc_state)
 1914              	 .loc 2 1119 0
 1915 0010 3A68     	 ldr r2,[r7]
 1916 0012 BC23     	 mov r3,#188
 1917 0014 5B00     	 lsl r3,r3,#1
 1918 0016 D358     	 ldr r3,[r2,r3]
 1919 0018 A22B     	 cmp r3,#162
 1920 001a 12D0     	 beq .L124
 1921 001c 04D8     	 bhi .L125
 1922 001e 022B     	 cmp r3,#2
 1923 0020 1FD0     	 beq .L126
 1924 0022 0A2B     	 cmp r3,#10
 1925 0024 15D0     	 beq .L127
 1926 0026 2CE0     	 b .L123
 1927              	.L125:
 1928 0028 E22B     	 cmp r3,#226
 1929 002a 02D0     	 beq .L128
 1930 002c F22B     	 cmp r3,#242
 1931 002e 20D0     	 beq .L129
 1932 0030 27E0     	 b .L123
 1933              	.L128:
1120:../Dave/Generated/E_EEPROM_XMC1/e_eeprom_xmc1.c ****   {
1121:../Dave/Generated/E_EEPROM_XMC1/e_eeprom_xmc1.c ****     /*
1122:../Dave/Generated/E_EEPROM_XMC1/e_eeprom_xmc1.c ****      * Normal Data write in Bank-1 interrupted (E2), Next step = Cache Update and get ready to acce
1123:../Dave/Generated/E_EEPROM_XMC1/e_eeprom_xmc1.c ****      * Transition states : Nothing
1124:../Dave/Generated/E_EEPROM_XMC1/e_eeprom_xmc1.c ****      */
1125:../Dave/Generated/E_EEPROM_XMC1/e_eeprom_xmc1.c ****     case E_EEPROM_XMC1_INIT_NORMAL2:
1126:../Dave/Generated/E_EEPROM_XMC1/e_eeprom_xmc1.c ****       data_ptr->current_bank = 1U;
 1934              	 .loc 2 1126 0
 1935 0032 3B68     	 ldr r3,[r7]
 1936 0034 0122     	 mov r2,#1
 1937 0036 9A63     	 str r2,[r3,#56]
1127:../Dave/Generated/E_EEPROM_XMC1/e_eeprom_xmc1.c ****       E_EEPROM_XMC1_lInitGcNormalStates( E_EEPROM_XMC1_GC_IDLE, E_EEPROM_XMC1_EXECUTE_CACHE_UPDATE)
 1938              	 .loc 2 1127 0
 1939 0038 0A20     	 mov r0,#10
 1940 003a 0021     	 mov r1,#0
 1941 003c FFF7FEFF 	 bl E_EEPROM_XMC1_lInitGcNormalStates
1128:../Dave/Generated/E_EEPROM_XMC1/e_eeprom_xmc1.c ****       break;
 1942              	 .loc 2 1128 0
 1943 0040 22E0     	 b .L130
 1944              	.L124:
1129:../Dave/Generated/E_EEPROM_XMC1/e_eeprom_xmc1.c ****     
1130:../Dave/Generated/E_EEPROM_XMC1/e_eeprom_xmc1.c ****     /*
1131:../Dave/Generated/E_EEPROM_XMC1/e_eeprom_xmc1.c ****      * Data copy from Bank1 to Bank0 interrupted (A2), Next step = Erasing Bank-0 and restart copy 
1132:../Dave/Generated/E_EEPROM_XMC1/e_eeprom_xmc1.c ****      * Transition states : (A2) -> ERASE_BANK0 (F2) -> E2 -> GC_PROCESS (A2 -> A0 -> 20 -> 2F -> 2E
1133:../Dave/Generated/E_EEPROM_XMC1/e_eeprom_xmc1.c ****      */
1134:../Dave/Generated/E_EEPROM_XMC1/e_eeprom_xmc1.c ****     case E_EEPROM_XMC1_INIT_DATA_COPY2:
1135:../Dave/Generated/E_EEPROM_XMC1/e_eeprom_xmc1.c ****       data_ptr->current_bank = 1U;
 1945              	 .loc 2 1135 0
 1946 0042 3B68     	 ldr r3,[r7]
 1947 0044 0122     	 mov r2,#1
 1948 0046 9A63     	 str r2,[r3,#56]
1136:../Dave/Generated/E_EEPROM_XMC1/e_eeprom_xmc1.c ****       E_EEPROM_XMC1_lInitGcDataCopyState( E_EEPROM_XMC1_GC_REQUESTED, E_EEPROM_XMC1_END_ERASE_OFFSE
 1949              	 .loc 2 1136 0
 1950 0048 0420     	 mov r0,#4
 1951 004a 3021     	 mov r1,#48
 1952 004c FFF7FEFF 	 bl E_EEPROM_XMC1_lInitGcDataCopyState
1137:../Dave/Generated/E_EEPROM_XMC1/e_eeprom_xmc1.c ****       break;
 1953              	 .loc 2 1137 0
 1954 0050 1AE0     	 b .L130
 1955              	.L127:
1138:../Dave/Generated/E_EEPROM_XMC1/e_eeprom_xmc1.c ****     
1139:../Dave/Generated/E_EEPROM_XMC1/e_eeprom_xmc1.c ****     /*
1140:../Dave/Generated/E_EEPROM_XMC1/e_eeprom_xmc1.c ****      * Interrupted after copy completion from Bank0 to Bank1 (0A),Next step = Writing Valid state i
1141:../Dave/Generated/E_EEPROM_XMC1/e_eeprom_xmc1.c ****      * Transition states : (0A) -> (02) -> GC_PROCESS (F2 -> E2)
1142:../Dave/Generated/E_EEPROM_XMC1/e_eeprom_xmc1.c ****      */
1143:../Dave/Generated/E_EEPROM_XMC1/e_eeprom_xmc1.c ****     case E_EEPROM_XMC1_INIT_COPY_DONE2:
1144:../Dave/Generated/E_EEPROM_XMC1/e_eeprom_xmc1.c ****       data_ptr->current_bank = 1U;
 1956              	 .loc 2 1144 0
 1957 0052 3B68     	 ldr r3,[r7]
 1958 0054 0122     	 mov r2,#1
 1959 0056 9A63     	 str r2,[r3,#56]
1145:../Dave/Generated/E_EEPROM_XMC1/e_eeprom_xmc1.c ****       E_EEPROM_XMC1_lInitGcNormalStates( E_EEPROM_XMC1_GC_NEXT_BANK_VALID, E_EEPROM_XMC1_EXECUTE_GC
 1960              	 .loc 2 1145 0
 1961 0058 0720     	 mov r0,#7
 1962 005a 0221     	 mov r1,#2
 1963 005c FFF7FEFF 	 bl E_EEPROM_XMC1_lInitGcNormalStates
1146:../Dave/Generated/E_EEPROM_XMC1/e_eeprom_xmc1.c ****       break;
 1964              	 .loc 2 1146 0
 1965 0060 12E0     	 b .L130
 1966              	.L126:
1147:../Dave/Generated/E_EEPROM_XMC1/e_eeprom_xmc1.c ****     
1148:../Dave/Generated/E_EEPROM_XMC1/e_eeprom_xmc1.c ****     /*
1149:../Dave/Generated/E_EEPROM_XMC1/e_eeprom_xmc1.c ****      * Interrupted after writing valid state to Bank1 (02), Next step = Erase of old redundant Bank
1150:../Dave/Generated/E_EEPROM_XMC1/e_eeprom_xmc1.c ****      * Transition states : (02) -> (F2) -> GC_PROCESS (E2)
1151:../Dave/Generated/E_EEPROM_XMC1/e_eeprom_xmc1.c ****      */
1152:../Dave/Generated/E_EEPROM_XMC1/e_eeprom_xmc1.c ****     case E_EEPROM_XMC1_INIT_NEXT_VALID2:
1153:../Dave/Generated/E_EEPROM_XMC1/e_eeprom_xmc1.c ****       data_ptr->current_bank = 1U;
 1967              	 .loc 2 1153 0
 1968 0062 3B68     	 ldr r3,[r7]
 1969 0064 0122     	 mov r2,#1
 1970 0066 9A63     	 str r2,[r3,#56]
1154:../Dave/Generated/E_EEPROM_XMC1/e_eeprom_xmc1.c ****       E_EEPROM_XMC1_lInitGcNormalStates( E_EEPROM_XMC1_GC_ERASE_PREV_BANK, E_EEPROM_XMC1_EXECUTE_GC
 1971              	 .loc 2 1154 0
 1972 0068 0320     	 mov r0,#3
 1973 006a 0221     	 mov r1,#2
 1974 006c FFF7FEFF 	 bl E_EEPROM_XMC1_lInitGcNormalStates
1155:../Dave/Generated/E_EEPROM_XMC1/e_eeprom_xmc1.c ****       break;
 1975              	 .loc 2 1155 0
 1976 0070 0AE0     	 b .L130
 1977              	.L129:
1156:../Dave/Generated/E_EEPROM_XMC1/e_eeprom_xmc1.c ****     
1157:../Dave/Generated/E_EEPROM_XMC1/e_eeprom_xmc1.c ****     /*
1158:../Dave/Generated/E_EEPROM_XMC1/e_eeprom_xmc1.c ****      * Interrupted after erase of old bank completed(F2), Next step = Mark erased Bank-0 with Forma
1159:../Dave/Generated/E_EEPROM_XMC1/e_eeprom_xmc1.c ****      * Transition states : (F2) -> GC_PROCESS (E2)
1160:../Dave/Generated/E_EEPROM_XMC1/e_eeprom_xmc1.c ****      */
1161:../Dave/Generated/E_EEPROM_XMC1/e_eeprom_xmc1.c ****     case E_EEPROM_XMC1_INIT_END_ERASE2:
1162:../Dave/Generated/E_EEPROM_XMC1/e_eeprom_xmc1.c ****       data_ptr->current_bank = 1U;
 1978              	 .loc 2 1162 0
 1979 0072 3B68     	 ldr r3,[r7]
 1980 0074 0122     	 mov r2,#1
 1981 0076 9A63     	 str r2,[r3,#56]
1163:../Dave/Generated/E_EEPROM_XMC1/e_eeprom_xmc1.c ****       E_EEPROM_XMC1_lInitGcNormalStates( E_EEPROM_XMC1_GC_MARK_END_ERASE1, E_EEPROM_XMC1_EXECUTE_GC
 1982              	 .loc 2 1163 0
 1983 0078 0820     	 mov r0,#8
 1984 007a 0221     	 mov r1,#2
 1985 007c FFF7FEFF 	 bl E_EEPROM_XMC1_lInitGcNormalStates
1164:../Dave/Generated/E_EEPROM_XMC1/e_eeprom_xmc1.c ****       break;
 1986              	 .loc 2 1164 0
 1987 0080 02E0     	 b .L130
 1988              	.L123:
1165:../Dave/Generated/E_EEPROM_XMC1/e_eeprom_xmc1.c ****     
1166:../Dave/Generated/E_EEPROM_XMC1/e_eeprom_xmc1.c ****     default:
1167:../Dave/Generated/E_EEPROM_XMC1/e_eeprom_xmc1.c ****       state_found = 0U;
 1989              	 .loc 2 1167 0
 1990 0082 0023     	 mov r3,#0
 1991 0084 7B60     	 str r3,[r7,#4]
1168:../Dave/Generated/E_EEPROM_XMC1/e_eeprom_xmc1.c ****       break;
 1992              	 .loc 2 1168 0
 1993 0086 C046     	 mov r8,r8
 1994              	.L130:
1169:../Dave/Generated/E_EEPROM_XMC1/e_eeprom_xmc1.c ****   }
1170:../Dave/Generated/E_EEPROM_XMC1/e_eeprom_xmc1.c ****   return (state_found);
 1995              	 .loc 2 1170 0
 1996 0088 7B68     	 ldr r3,[r7,#4]
1171:../Dave/Generated/E_EEPROM_XMC1/e_eeprom_xmc1.c **** }
 1997              	 .loc 2 1171 0
 1998 008a 181C     	 mov r0,r3
 1999 008c BD46     	 mov sp,r7
 2000 008e 02B0     	 add sp,sp,#8
 2001              	 
 2002 0090 80BD     	 pop {r7,pc}
 2003              	.L133:
 2004 0092 C046     	 .align 2
 2005              	.L132:
 2006 0094 00000000 	 .word E_EEPROM_XMC1_0
 2007              	 .cfi_endproc
 2008              	.LFE64:
 2010              	 .section .text.E_EEPROM_XMC1_lInitOtherNormalStateMachine,"ax",%progbits
 2011              	 .align 2
 2012              	 .code 16
 2013              	 .thumb_func
 2015              	E_EEPROM_XMC1_lInitOtherNormalStateMachine:
 2016              	.LFB65:
1172:../Dave/Generated/E_EEPROM_XMC1/e_eeprom_xmc1.c **** 
1173:../Dave/Generated/E_EEPROM_XMC1/e_eeprom_xmc1.c **** /*
1174:../Dave/Generated/E_EEPROM_XMC1/e_eeprom_xmc1.c **** * Parameters(IN)  : void
1175:../Dave/Generated/E_EEPROM_XMC1/e_eeprom_xmc1.c **** *
1176:../Dave/Generated/E_EEPROM_XMC1/e_eeprom_xmc1.c **** * Return value    : uint32_t : ( 1= state_found / 0 = State not found )
1177:../Dave/Generated/E_EEPROM_XMC1/e_eeprom_xmc1.c **** *
1178:../Dave/Generated/E_EEPROM_XMC1/e_eeprom_xmc1.c **** * Description     : Execute other state machine process and return the found states.
1179:../Dave/Generated/E_EEPROM_XMC1/e_eeprom_xmc1.c **** */
1180:../Dave/Generated/E_EEPROM_XMC1/e_eeprom_xmc1.c **** static uint32_t E_EEPROM_XMC1_lInitOtherNormalStateMachine(void)
1181:../Dave/Generated/E_EEPROM_XMC1/e_eeprom_xmc1.c **** {
 2017              	 .loc 2 1181 0
 2018              	 .cfi_startproc
 2019 0000 80B5     	 push {r7,lr}
 2020              	.LCFI56:
 2021              	 .cfi_def_cfa_offset 8
 2022              	 .cfi_offset 7,-8
 2023              	 .cfi_offset 14,-4
 2024 0002 82B0     	 sub sp,sp,#8
 2025              	.LCFI57:
 2026              	 .cfi_def_cfa_offset 16
 2027 0004 00AF     	 add r7,sp,#0
 2028              	.LCFI58:
 2029              	 .cfi_def_cfa_register 7
1182:../Dave/Generated/E_EEPROM_XMC1/e_eeprom_xmc1.c ****   uint32_t state_found;
1183:../Dave/Generated/E_EEPROM_XMC1/e_eeprom_xmc1.c ****   E_EEPROM_XMC1_DATA_t *data_ptr;
1184:../Dave/Generated/E_EEPROM_XMC1/e_eeprom_xmc1.c ****   data_ptr = (E_EEPROM_XMC1_DATA_t*)(void*)(E_EEPROM_XMC1_HANDLE_PTR->data_ptr);
 2030              	 .loc 2 1184 0
 2031 0006 244B     	 ldr r3,.L144
 2032 0008 5B68     	 ldr r3,[r3,#4]
 2033 000a 3B60     	 str r3,[r7]
1185:../Dave/Generated/E_EEPROM_XMC1/e_eeprom_xmc1.c ****   
1186:../Dave/Generated/E_EEPROM_XMC1/e_eeprom_xmc1.c ****   state_found = 1U;
 2034              	 .loc 2 1186 0
 2035 000c 0123     	 mov r3,#1
 2036 000e 7B60     	 str r3,[r7,#4]
1187:../Dave/Generated/E_EEPROM_XMC1/e_eeprom_xmc1.c ****   
1188:../Dave/Generated/E_EEPROM_XMC1/e_eeprom_xmc1.c ****   switch (data_ptr->init_gc_state)
 2037              	 .loc 2 1188 0
 2038 0010 3A68     	 ldr r2,[r7]
 2039 0012 BC23     	 mov r3,#188
 2040 0014 5B00     	 lsl r3,r3,#1
 2041 0016 D358     	 ldr r3,[r2,r3]
 2042 0018 F02B     	 cmp r3,#240
 2043 001a 2CD0     	 beq .L136
 2044 001c 04D8     	 bhi .L137
 2045 001e 0F2B     	 cmp r3,#15
 2046 0020 20D0     	 beq .L138
 2047 0022 AF2B     	 cmp r3,#175
 2048 0024 0CD0     	 beq .L139
 2049 0026 2FE0     	 b .L135
 2050              	.L137:
 2051 0028 FA2B     	 cmp r3,#250
 2052 002a 12D0     	 beq .L140
 2053 002c FF2B     	 cmp r3,#255
 2054 002e 2BD1     	 bne .L135
1189:../Dave/Generated/E_EEPROM_XMC1/e_eeprom_xmc1.c ****   {
1190:../Dave/Generated/E_EEPROM_XMC1/e_eeprom_xmc1.c ****     /* Interrupted after erase of both banks completed (FF), Next step = Start Prepare DFlash  */
1191:../Dave/Generated/E_EEPROM_XMC1/e_eeprom_xmc1.c ****     case E_EEPROM_XMC1_INIT_ALL_ERASED:
1192:../Dave/Generated/E_EEPROM_XMC1/e_eeprom_xmc1.c ****       /* Change the current Bank to Bank0 */
1193:../Dave/Generated/E_EEPROM_XMC1/e_eeprom_xmc1.c ****       data_ptr->current_bank = 0U;
 2055              	 .loc 2 1193 0
 2056 0030 3B68     	 ldr r3,[r7]
 2057 0032 0022     	 mov r2,#0
 2058 0034 9A63     	 str r2,[r3,#56]
1194:../Dave/Generated/E_EEPROM_XMC1/e_eeprom_xmc1.c ****       /* Transition states : FF ->  PREPARE_DFLASH (2F) -> 2E */
1195:../Dave/Generated/E_EEPROM_XMC1/e_eeprom_xmc1.c ****       E_EEPROM_XMC1_lInitGcNormalStates( E_EEPROM_XMC1_PREPFLASH_FF, E_EEPROM_XMC1_EXECUTE_PREP_FLA
 2059              	 .loc 2 1195 0
 2060 0036 0120     	 mov r0,#1
 2061 0038 0121     	 mov r1,#1
 2062 003a FFF7FEFF 	 bl E_EEPROM_XMC1_lInitGcNormalStates
1196:../Dave/Generated/E_EEPROM_XMC1/e_eeprom_xmc1.c ****       break;
 2063              	 .loc 2 1196 0
 2064 003e 26E0     	 b .L142
 2065              	.L139:
1197:../Dave/Generated/E_EEPROM_XMC1/e_eeprom_xmc1.c ****     
1198:../Dave/Generated/E_EEPROM_XMC1/e_eeprom_xmc1.c ****     /*
1199:../Dave/Generated/E_EEPROM_XMC1/e_eeprom_xmc1.c ****      * Interrupted after erase of Bank1 during previous recovery(AF), Next step = Bank0 marker Page
1200:../Dave/Generated/E_EEPROM_XMC1/e_eeprom_xmc1.c ****      * Transition states : AF -> A0 -> GC PROCESS -> 20 -> 2F -> 2E
1201:../Dave/Generated/E_EEPROM_XMC1/e_eeprom_xmc1.c ****      */
1202:../Dave/Generated/E_EEPROM_XMC1/e_eeprom_xmc1.c ****     case E_EEPROM_XMC1_INIT_STATE_AF:
1203:../Dave/Generated/E_EEPROM_XMC1/e_eeprom_xmc1.c ****       /* Change the current Bank to Bank1 */
1204:../Dave/Generated/E_EEPROM_XMC1/e_eeprom_xmc1.c ****       data_ptr->current_bank = 0U;
 2066              	 .loc 2 1204 0
 2067 0040 3B68     	 ldr r3,[r7]
 2068 0042 0022     	 mov r2,#0
 2069 0044 9A63     	 str r2,[r3,#56]
1205:../Dave/Generated/E_EEPROM_XMC1/e_eeprom_xmc1.c ****     
1206:../Dave/Generated/E_EEPROM_XMC1/e_eeprom_xmc1.c ****       E_EEPROM_XMC1_lCopyProcessDirtyStateRecovery( E_EEPROM_XMC1_COPY_COMPLETED ,
 2070              	 .loc 2 1206 0
 2071 0046 0020     	 mov r0,#0
 2072 0048 0721     	 mov r1,#7
 2073 004a 0122     	 mov r2,#1
 2074 004c FFF7FEFF 	 bl E_EEPROM_XMC1_lCopyProcessDirtyStateRecovery
1207:../Dave/Generated/E_EEPROM_XMC1/e_eeprom_xmc1.c ****                                                     E_EEPROM_XMC1_GC_NEXT_BANK_VALID , 1U);
1208:../Dave/Generated/E_EEPROM_XMC1/e_eeprom_xmc1.c ****       break;
 2075              	 .loc 2 1208 0
 2076 0050 1DE0     	 b .L142
 2077              	.L140:
1209:../Dave/Generated/E_EEPROM_XMC1/e_eeprom_xmc1.c ****     
1210:../Dave/Generated/E_EEPROM_XMC1/e_eeprom_xmc1.c ****     /*
1211:../Dave/Generated/E_EEPROM_XMC1/e_eeprom_xmc1.c ****      * Interrupted after erase of Bank0 during previous recovery(FA), Next step = Bank1 marker Page
1212:../Dave/Generated/E_EEPROM_XMC1/e_eeprom_xmc1.c ****      * Transition states : FA -> 0A -> GC PROCESS -> 02 -> F2 -> E2
1213:../Dave/Generated/E_EEPROM_XMC1/e_eeprom_xmc1.c ****      */
1214:../Dave/Generated/E_EEPROM_XMC1/e_eeprom_xmc1.c ****     case E_EEPROM_XMC1_INIT_STATE_FA:
1215:../Dave/Generated/E_EEPROM_XMC1/e_eeprom_xmc1.c ****       data_ptr->current_bank = 1U;
 2078              	 .loc 2 1215 0
 2079 0052 3B68     	 ldr r3,[r7]
 2080 0054 0122     	 mov r2,#1
 2081 0056 9A63     	 str r2,[r3,#56]
1216:../Dave/Generated/E_EEPROM_XMC1/e_eeprom_xmc1.c ****       E_EEPROM_XMC1_lCopyProcessDirtyStateRecovery( E_EEPROM_XMC1_COPY_COMPLETED ,
 2082              	 .loc 2 1216 0
 2083 0058 0020     	 mov r0,#0
 2084 005a 0721     	 mov r1,#7
 2085 005c 0122     	 mov r2,#1
 2086 005e FFF7FEFF 	 bl E_EEPROM_XMC1_lCopyProcessDirtyStateRecovery
1217:../Dave/Generated/E_EEPROM_XMC1/e_eeprom_xmc1.c ****                                                     E_EEPROM_XMC1_GC_NEXT_BANK_VALID , 1U);
1218:../Dave/Generated/E_EEPROM_XMC1/e_eeprom_xmc1.c ****       break;
 2087              	 .loc 2 1218 0
 2088 0062 14E0     	 b .L142
 2089              	.L138:
1219:../Dave/Generated/E_EEPROM_XMC1/e_eeprom_xmc1.c ****     
1220:../Dave/Generated/E_EEPROM_XMC1/e_eeprom_xmc1.c ****     /*
1221:../Dave/Generated/E_EEPROM_XMC1/e_eeprom_xmc1.c ****      * Interrupted after erase of Bank1 during previous recover(0F), Next step = Bank1 marker Page 
1222:../Dave/Generated/E_EEPROM_XMC1/e_eeprom_xmc1.c ****      * Transition states : 0F -> 02 -> GC PROCESS -> F2 -> E2
1223:../Dave/Generated/E_EEPROM_XMC1/e_eeprom_xmc1.c ****      */
1224:../Dave/Generated/E_EEPROM_XMC1/e_eeprom_xmc1.c ****     case E_EEPROM_XMC1_INIT_STATE_0F:
1225:../Dave/Generated/E_EEPROM_XMC1/e_eeprom_xmc1.c ****       data_ptr->current_bank = 1U;
 2090              	 .loc 2 1225 0
 2091 0064 3B68     	 ldr r3,[r7]
 2092 0066 0122     	 mov r2,#1
 2093 0068 9A63     	 str r2,[r3,#56]
1226:../Dave/Generated/E_EEPROM_XMC1/e_eeprom_xmc1.c ****       E_EEPROM_XMC1_lCopyProcessDirtyStateRecovery( E_EEPROM_XMC1_VALID_STATE ,
 2094              	 .loc 2 1226 0
 2095 006a 2020     	 mov r0,#32
 2096 006c 0321     	 mov r1,#3
 2097 006e 0022     	 mov r2,#0
 2098 0070 FFF7FEFF 	 bl E_EEPROM_XMC1_lCopyProcessDirtyStateRecovery
1227:../Dave/Generated/E_EEPROM_XMC1/e_eeprom_xmc1.c ****                                                     E_EEPROM_XMC1_GC_ERASE_PREV_BANK , 0U);
1228:../Dave/Generated/E_EEPROM_XMC1/e_eeprom_xmc1.c ****       break;
 2099              	 .loc 2 1228 0
 2100 0074 0BE0     	 b .L142
 2101              	.L136:
1229:../Dave/Generated/E_EEPROM_XMC1/e_eeprom_xmc1.c ****     
1230:../Dave/Generated/E_EEPROM_XMC1/e_eeprom_xmc1.c ****     /*
1231:../Dave/Generated/E_EEPROM_XMC1/e_eeprom_xmc1.c ****      * Interrupted after erase of Bank1 during previous recover(F0), Next step = Bank1 marker Page 
1232:../Dave/Generated/E_EEPROM_XMC1/e_eeprom_xmc1.c ****      * Transition states : F0 -> 20 -> GC PROCESS -> 2F -> 2E
1233:../Dave/Generated/E_EEPROM_XMC1/e_eeprom_xmc1.c ****      */
1234:../Dave/Generated/E_EEPROM_XMC1/e_eeprom_xmc1.c ****     case E_EEPROM_XMC1_INIT_STATE_F0:
1235:../Dave/Generated/E_EEPROM_XMC1/e_eeprom_xmc1.c ****       /* Change the current Bank to Bank0 */
1236:../Dave/Generated/E_EEPROM_XMC1/e_eeprom_xmc1.c ****       data_ptr->current_bank = 0U;
 2102              	 .loc 2 1236 0
 2103 0076 3B68     	 ldr r3,[r7]
 2104 0078 0022     	 mov r2,#0
 2105 007a 9A63     	 str r2,[r3,#56]
1237:../Dave/Generated/E_EEPROM_XMC1/e_eeprom_xmc1.c ****       /* Transition states : D0 -> 20 -> GC PROCESS -> 2E */
1238:../Dave/Generated/E_EEPROM_XMC1/e_eeprom_xmc1.c ****       E_EEPROM_XMC1_lCopyProcessDirtyStateRecovery( E_EEPROM_XMC1_VALID_STATE ,
 2106              	 .loc 2 1238 0
 2107 007c 2020     	 mov r0,#32
 2108 007e 0321     	 mov r1,#3
 2109 0080 0022     	 mov r2,#0
 2110 0082 FFF7FEFF 	 bl E_EEPROM_XMC1_lCopyProcessDirtyStateRecovery
1239:../Dave/Generated/E_EEPROM_XMC1/e_eeprom_xmc1.c ****                                                     E_EEPROM_XMC1_GC_ERASE_PREV_BANK , 0U);
1240:../Dave/Generated/E_EEPROM_XMC1/e_eeprom_xmc1.c ****       break;
 2111              	 .loc 2 1240 0
 2112 0086 02E0     	 b .L142
 2113              	.L135:
1241:../Dave/Generated/E_EEPROM_XMC1/e_eeprom_xmc1.c ****     
1242:../Dave/Generated/E_EEPROM_XMC1/e_eeprom_xmc1.c ****     default:
1243:../Dave/Generated/E_EEPROM_XMC1/e_eeprom_xmc1.c ****       state_found = 0U;
 2114              	 .loc 2 1243 0
 2115 0088 0023     	 mov r3,#0
 2116 008a 7B60     	 str r3,[r7,#4]
1244:../Dave/Generated/E_EEPROM_XMC1/e_eeprom_xmc1.c ****       break;
 2117              	 .loc 2 1244 0
 2118 008c C046     	 mov r8,r8
 2119              	.L142:
1245:../Dave/Generated/E_EEPROM_XMC1/e_eeprom_xmc1.c ****   }
1246:../Dave/Generated/E_EEPROM_XMC1/e_eeprom_xmc1.c ****   return (state_found);
 2120              	 .loc 2 1246 0
 2121 008e 7B68     	 ldr r3,[r7,#4]
1247:../Dave/Generated/E_EEPROM_XMC1/e_eeprom_xmc1.c **** }
 2122              	 .loc 2 1247 0
 2123 0090 181C     	 mov r0,r3
 2124 0092 BD46     	 mov sp,r7
 2125 0094 02B0     	 add sp,sp,#8
 2126              	 
